AE5L600L Map Switching & Timing Blend Disassembly Trace
==============================================================================
ROM: C:\Users\DeanHayden\OneDrive - Vytal\Documents\GitHub\ae6l600l\scripts\disasm\..\..\rom\ae5l600l.bin
ROM size: 1048576 bytes


==============================================================================
  CALIBRATION BLOCK: Map Switching Parameters (0xD29AC - 0xD2B1C)
==============================================================================
  0x0D29AC:     50    CruiseSwitchCounterA
  0x0D29AE:     38    CruiseSwitchMinDelayA
  0x0D29B0:    100    CruiseSwitchCounterB
  0x0D29B2:     38    CruiseSwitchMinDelayB

  0x0D2A08:    2000.0000    MapSwitch_EngineSpeedThreshold
  0x0D2A0C:       0.8798    MapSwitch_TorqueRatioThreshold
  0x0D2A10:       2.0000    MapSwitch_MAFLoadThreshold
  0x0D2A14:     550.0000    MapSwitch_VehicleSpeedLow
  0x0D2A18:    1300.0000    MapSwitch_VehicleSpeedHigh
  0x0D2A1C:      80.0000    MapSwitch_IATThreshold
  0x0D2A34:       0.0000    MapSwitch_IdleModeThreshold
  0x0D2A38:       4.0000    MapSwitch_SIDriveThreshold
  0x0D2A40:     -39.0000    MapSwitch_ECTColdLow
  0x0D2A44:     -20.0000    MapSwitch_ECTColdHigh
  0x0D2A50:     120.0000    MapSwitch_ECTHotA
  0x0D2A54:      60.0000    MapSwitch_ECTHotB
  0x0D2A58:       0.0000    MapSwitch_RatioModMin
  0x0D2A5C:      13.0000    MapSwitch_RatioModScale
  0x0D2A60:       0.7000    MapSwitch_RampAdderA
  0x0D2A64:       0.7000    MapSwitch_RampAdderB
  0x0D2A68:      60.0000    MapSwitch_MAFSensorA
  0x0D2A6C:       0.0000    MapSwitch_MAFSensorB
  0x0D2A70:       5.0000    MapSwitch_ReqTorqueMin
  0x0D2A74:    4000.0000    MapSwitch_GearRPM_1
  0x0D2A78:    4000.0000    MapSwitch_GearRPM_2
  0x0D2A7C:    4000.0000    MapSwitch_GearRPM_3
  0x0D2A80:    4000.0000    MapSwitch_GearRPM_4
  0x0D2A84:    4000.0000    MapSwitch_GearRPM_5
  0x0D2A88:    4000.0000    MapSwitch_GearRPM_6
  0x0D2A8C:    2800.0000    MapSwitch_BaseRPMThreshold
  0x0D2A90:      10.0000    MapSwitch_ECTCompA
  0x0D2A94:      10.0000    MapSwitch_ECTCompB
  0x0D2A98:      69.7000    MapSwitch_ECTThreshold
  0x0D2A9C:   12000.0000    MapSwitch_RPMOverride
  0x0D2AA0:       5.0000    MapSwitch_LoadOverride
  0x0D2AA4:      10.0000    MapSwitch_SpeedLoadCheck
  0x0D2AA8:    7900.0000    MapSwitch_RPMHystLow
  0x0D2AAC:    8000.0000    MapSwitch_RPMHystHigh
  0x0D2AB0:       0.0000    MapSwitch_RatioMinBound
  0x0D2AB4:      20.0000    MapSwitch_RatioMaxBound
  0x0D2ABC:     100.0000    MapSwitch_PctCeiling

  --- Timing Blend Parameters ---
  0x0D2AE8:      10.0000    TimBlend_LookupInputThreshold
  0x0D2AEC:     700.0000    TimBlend_RPMActivation
  0x0D2AF0:     600.0000    TimBlend_RPMSecondary
  0x0D2AF4:      69.6500    TimBlend_IAT_A
  0x0D2AF8:      69.6500    TimBlend_IAT_B
  0x0D2AFC:      -3.0000    TimBlend_CorrOffset
  0x0D2B00:   10000.0000    TimBlend_RPMMax
  0x0D2B04:       0.3500    TimBlend_RampRate
  0x0D2B08:      44.0000    TimBlend_CorrThreshold
  0x0D2B0C:       0.5000    TimBlend_HalfRatio
  0x0D2B10:       0.0000    TimBlend_MinRatio
  0x0D2B14:    6000.0000    TimBlend_RPMLimit
  0x0D2B18:       0.0000    TimBlend_RatioFloor
  0x0D2B1C:       1.0000    TimBlend_RatioCeiling

==============================================================================
  TIMING BLEND DESCRIPTORS
==============================================================================
  Descriptor @ 0x0ADB4C: 1D unk_10 0  scale=-20  [desc_timing_blend_0]
    Data:   0x0D2F8C
    X-axis: 0x0D31A6
    X: []

  Descriptor @ 0x0ADB60: 1D unk_10 0  scale=-20  [desc_timing_blend_1]
    Data:   0x0D2F8C
    X-axis: 0x0D31B6
    X: []

  Descriptor @ 0x0ADB74: 1D unk_10 0  scale=-20  [desc_timing_blend_2]
    Data:   0x0D2F8C
    X-axis: 0x0D31C6
    X: []

  Descriptor @ 0x0ADB88: 1D unk_10 0  scale=-20  [desc_timing_blend_3]
    Data:   0x0D2F8C
    X-axis: 0x0D31D6
    X: []

  Descriptor @ 0x0ADBB0: 1D unk_10 0  scale=-20  [desc_timing_blend_4]
    Data:   0x0D2FCC
    X-axis: 0x0D31F6
    X: []


==============================================================================
  task31_timing_blend_ratio  @  0x3FFD6
==============================================================================
  03FFD6: 2FE6  mov.l  r14,@-r15
  03FFD8: 4F22  sts.l  PR,@-r15
  03FFDA: FFCB  fmov.s fr12,@-r15
  03FFDC: FFDB  fmov.s fr13,@-r15
  03FFDE: FFEB  fmov.s fr14,@-r15
  03FFE0: FFFB  fmov.s fr15,@-r15
  03FFE2: D249  mov.l  @(0x40108),r2  ; =0xFFFF9230 (RAM) [blend_ratio_workspace_A]
  03FFE4: FE28  fmov.s @r2,fr14
  03FFE6: D249  mov.l  @(0x4010C),r2  ; =0xFFFF9234 (RAM) [blend_ratio_workspace_B]
  03FFE8: FF28  fmov.s @r2,fr15
  03FFEA: D249  mov.l  @(0x40110),r2  ; =0xFFFF9164 (RAM) [blend_timing_ws_A]
  03FFEC: FC28  fmov.s @r2,fr12
  03FFEE: D249  mov.l  @(0x40114),r2  ; =0xFFFF9168 (RAM) [blend_timing_ws_B]
  03FFF0: FD28  fmov.s @r2,fr13
  03FFF2: D649  mov.l  @(0x40118),r6  ; =0xFFFF91F9 (RAM) [blend_state_flag]
  03FFF4: D249  mov.l  @(0x4011C),r2  ; =0x0002999C (ROM)
  03FFF6: 420B  jsr    @r2
  03FFF8: 6E60  mov.b  @r6,r14
  03FFFA: 600C  extu.b r0,r0
  03FFFC: 8802  cmp/eq #2,r0
  03FFFE: 8B03  bf     0x40008
  040000: F89D  fldi1  fr8
  040002: D647  mov.l  @(0x40120),r6  ; =0xFFFF7F3C (RAM) [blend_output_scratch]
  040004: A01A  bra    0x4003C
  040006: F68A  fmov.s fr8,@r6
  040008: D246  mov.l  @(0x40124),r2  ; =0x000D2B18 [cal:TimBlend_RatioFloor]
  04000A: F828  fmov.s @r2,fr8
  04000C: F8E5  fcmp/gt fr14,fr8
  04000E: 8915  bt     0x4003C
  040010: F828  fmov.s @r2,fr8
  040012: F8F5  fcmp/gt fr15,fr8
  040014: 8912  bt     0x4003C
  040016: F828  fmov.s @r2,fr8
  040018: F8C5  fcmp/gt fr12,fr8
  04001A: 890F  bt     0x4003C
  04001C: F828  fmov.s @r2,fr8
  04001E: F8D5  fcmp/gt fr13,fr8
  040020: 890C  bt     0x4003C
  040022: 60EC  extu.b r14,r0
  040024: 8801  cmp/eq #1,r0
  040026: 8B09  bf     0x4003C
  040028: D63D  mov.l  @(0x40120),r6  ; =0xFFFF7F3C (RAM) [blend_output_scratch]
  04002A: F468  fmov.s @r6,fr4
  04002C: D23E  mov.l  @(0x40128),r2  ; =0x000D2B1C [cal:TimBlend_RatioCeiling]
  04002E: F828  fmov.s @r2,fr8
  040030: F481  fsub fr8,fr4
  040032: D229  mov.l  @(0x400D8),r2  ; =0x000BE960 (ROM)
  040034: 420B  jsr    @r2
  040036: F58D  fldi0  fr5
  040038: D639  mov.l  @(0x40120),r6  ; =0xFFFF7F3C (RAM) [blend_output_scratch]
  04003A: F60A  fmov.s fr0,@r6
  04003C: FFF9  fmov.s @r15+,fr15
  04003E: FEF9  fmov.s @r15+,fr14
  040040: FDF9  fmov.s @r15+,fr13
  040042: FCF9  fmov.s @r15+,fr12
  040044: 4F26  lds.l  @r15+,PR
  040046: 000B  rts
  040048: 6EF6  mov.l  @r15+,r14
  04004A: 2FC6  mov.l  r12,@-r15
  04004C: 2FD6  mov.l  r13,@-r15
  04004E: 2FE6  mov.l  r14,@-r15
  040050: 4F22  sts.l  PR,@-r15
  040052: FFCB  fmov.s fr12,@-r15
  040054: FFDB  fmov.s fr13,@-r15
  040056: FFEB  fmov.s fr14,@-r15
  040058: FFFB  fmov.s fr15,@-r15
  04005A: 4F13  .word  0x4F13
  04005C: D033  mov.l  @(0x4012C),r0  ; =0xFFFF7F0C (RAM) [timing_blend_gbr]
  04005E: 401E  ldc    r0,GBR
  040060: 7FF4  add    #-12,r15
  040062: D233  mov.l  @(0x40130),r2  ; =0xFFFF6624 (RAM) [rpm_current]
  040064: FC28  fmov.s @r2,fr12
  040066: D233  mov.l  @(0x40134),r2  ; =0xFFFF63F8 (RAM) [iat_current]
  040068: FE28  fmov.s @r2,fr14
  04006A: D233  mov.l  @(0x40138),r2  ; =0xFFFF90A8 (RAM) [blend_app_scratch]
  04006C: F828  fmov.s @r2,fr8
  04006E: FF8A  fmov.s fr8,@r15
  040070: D232  mov.l  @(0x4013C),r2  ; =0xFFFF679C (RAM) [gear_current]
  040072: FF28  fmov.s @r2,fr15
  040074: D232  mov.l  @(0x40140),r2  ; =0x00022CF4 (ROM)
  040076: 420B  jsr    @r2
  040078: 0009  nop
  04007A: 620C  extu.b r0,r2
  04007C: D531  mov.l  @(0x40144),r5  ; =0xFFFF7BE2 (RAM) [idle_mode_flag]
  04007E: 2228  tst r2,r2
  040080: 8F03  bf/s   0x4008A
  040082: 6D50  mov.b  @r5,r13
  040084: D230  mov.l  @(0x40148),r2  ; =0x000D2B14 [cal:TimBlend_RPMLimit]
  040086: A002  bra    0x4008E
  040088: F928  fmov.s @r2,fr9
  04008A: D230  mov.l  @(0x4014C),r2  ; =0x000D2B10 [cal:TimBlend_MinRatio]
  04008C: F928  fmov.s @r2,fr9
  04008E: C52A  mov.w  @(84,GBR),r0  ; GBR+0x54
  040090: D52F  mov.l  @(0x40150),r5  ; =0x000D29D4 [cal:MapSwitch_BlendAppCal]
  040092: 6251  mov.w  @r5,r2
  040094: 3026  cmp/hi r2,r0
  040096: 8963  bt     0x40160
  040098: D52E  mov.l  @(0x40154),r5  ; =0xFFFF8075 (RAM) [si_drive_mode]
  04009A: 6050  mov.b  @r5,r0
  04009C: C802  tst    #2,r0
  04009E: 322A  subc r2,r2
  0400A0: 7201  add    #1,r2
  0400A2: 602C  extu.b r2,r0
  0400A4: 8801  cmp/eq #1,r0
  0400A6: 8B5B  bf     0x40160
  0400A8: F9C5  fcmp/gt fr12,fr9
  0400AA: 8B59  bf     0x40160
  0400AC: 6050  mov.b  @r5,r0
  0400AE: C801  tst    #1,r0
  0400B0: 8956  bt     0x40160
  0400B2: D229  mov.l  @(0x40158),r2  ; =0xFFFF804C (RAM) [timing_base_select]
  0400B4: F828  fmov.s @r2,fr8
  0400B6: DC29  mov.l  @(0x4015C),r12  ; =0xFFFF7F60 (RAM) [map_ratio]
  0400B8: E0EC  mov    #-20,r0
  0400BA: A054  bra    0x40166
  0400BC: FC87  fmov.s fr8,@(r0,r12)
  0400BE: 0000  .word  0x0000
  0400C0: 000D  mov.w  @(r0,r0),r0
  0400C2: 2AEC  cmp/str r14,r10
  0400C4: 000D  mov.w  @(r0,r0),r0
  0400C6: 2AF4  mov.b  r15,@-r10
  0400C8: 000D  mov.w  @(r0,r0),r0
  0400CA: 2AF8  tst r15,r10
  0400CC: 000A  sts    MACH,r0
  0400CE: E300  mov    #0,r3
  0400D0: 000B  rts
  0400D2: E8E4  mov    #-28,r8
  0400D4: 000C  mov.b  @(r0,r0),r0
  0400D6: 1491  mov.l  r9,@(4,r4)
  0400D8: 000B  rts
  0400DA: E960  mov    #96,r9
  0400DC: 000B  rts
  0400DE: E970  mov    #112,r9
  0400E0: 000D  mov.w  @(r0,r0),r0
  0400E2: 2AFC  cmp/str r15,r10
  0400E4: FFFF  .word  0xFFFF  ; FPU
  0400E6: 3202  cmp/hs r0,r2
  0400E8: 000D  mov.w  @(r0,r0),r0
  0400EA: 29B2  mov.l  r11,@r9
  0400EC: 000D  mov.w  @(r0,r0),r0
  0400EE: 2B00  mov.b  r0,@r11
  0400F0: 000A  sts    MACH,r0
  0400F2: DBB0  mov.l  @(0x403B4),r11  ; =0x000ADB88 (ROM)
  0400F4: 000B  rts
  0400F6: E830  mov    #48,r8
  0400F8: 000D  mov.w  @(r0,r0),r0
  0400FA: 2B04  mov.b  r0,@-r11
  0400FC: 000A  sts    MACH,r0
  0400FE: DB24  mov.l  @(0x40190),r11  ; =0xF5C6FC0C
  040100: 000A  sts    MACH,r0
  040102: E2E4  mov    #-28,r2
  040104: 000D  mov.w  @(r0,r0),r0
  040106: 2AD8  tst r13,r10
  040108: FFFF  .word  0xFFFF  ; FPU
  04010A: 9230  mov.w  @(0x4016E),r2  ; =0xD47A (54394)
  04010C: FFFF  .word  0xFFFF  ; FPU
  04010E: 9234  mov.w  @(0x4017A),r2  ; =0xFF0C (65292)
  040110: FFFF  .word  0xFFFF  ; FPU
  040112: 9164  mov.w  @(0x401DE),r1  ; =0xF09D (61597)
  040114: FFFF  .word  0xFFFF  ; FPU
  040116: 9168  mov.w  @(0x401EA),r1  ; =0xFC87 (64647)
  040118: FFFF  .word  0xFFFF  ; FPU
  04011A: 91F9  mov.w  @(0x40310),r1  ; =0x000B (11)
  04011C: 0002  stc    SR,r0
  04011E: 999C  mov.w  @(0x4025A),r9  ; =0xD24A (53834)
  040120: FFFF  .word  0xFFFF  ; FPU
  040122: 7F3C  add    #60,r15
  040124: 000D  mov.w  @(r0,r0),r0
  040126: 2B18  tst r1,r11
  040128: 000D  mov.w  @(r0,r0),r0
  04012A: 2B1C  cmp/str r1,r11
  04012C: FFFF  .word  0xFFFF  ; FPU
  04012E: 7F0C  add    #12,r15
  040130: FFFF  .word  0xFFFF  ; FPU
  040132: 6624  mov.b  @r2+,r6
  040134: FFFF  .word  0xFFFF  ; FPU
  040136: 63F8  swap.b r15,r3
  040138: FFFF  .word  0xFFFF  ; FPU
  04013A: 90A8  mov.w  @(0x4028E),r0  ; =0xFCF9 (64761)
  04013C: FFFF  .word  0xFFFF  ; FPU
  04013E: 679C  extu.b r9,r7
  040140: 0002  stc    SR,r0
  040142: 2CF4  mov.b  r15,@-r12
  040144: FFFF  .word  0xFFFF  ; FPU
  040146: 7BE2  add    #-30,r11
  040148: 000D  mov.w  @(r0,r0),r0
  04014A: 2B14  mov.b  r1,@-r11
  04014C: 000D  mov.w  @(r0,r0),r0
  04014E: 2B10  mov.b  r1,@r11
  040150: 000D  mov.w  @(r0,r0),r0
  040152: 29D4  mov.b  r13,@-r9
  040154: FFFF  .word  0xFFFF  ; FPU
  040156: 8075  mov.b  r0,@(5,r7)
  040158: FFFF  .word  0xFFFF  ; FPU
  04015A: 804C  mov.b  r0,@(12,r4)
  04015C: FFFF  .word  0xFFFF  ; FPU
  04015E: 7F60  add    #96,r15
  040160: DC7C  mov.l  @(0x40354),r12  ; =0xFFFF7F60 (RAM) [map_ratio]
  040162: E0EC  mov    #-20,r0
  040164: FCF7  fmov.s fr15,@(r0,r12)
  040166: E0DC  mov    #-36,r0
  040168: F8C6  fmov.s @(r0,r12),fr8
  04016A: E004  mov    #4,r0
  04016C: FF87  fmov.s fr8,@(r0,r15)
  04016E: D47A  mov.l  @(0x40358),r4  ; =0x000AE31C (ROM)
  040170: DE7A  mov.l  @(0x4035C),r14  ; =0x000BE8E4 [func:table_desc_2d_typed]
  040172: F4EC  fmov   fr14,fr4
  040174: E0EC  mov    #-20,r0
  040176: 4E0B  jsr    @r14
  040178: F5C6  fmov.s @(r0,r12),fr5
  04017A: FF0C  fmov   fr0,fr15
  04017C: D478  mov.l  @(0x40360),r4  ; =0x000AE354 (ROM)
  04017E: F4EC  fmov   fr14,fr4
  040180: E0EC  mov    #-20,r0
  040182: 4E0B  jsr    @r14
  040184: F5C6  fmov.s @(r0,r12),fr5
  040186: FD0C  fmov   fr0,fr13
  040188: D476  mov.l  @(0x40364),r4  ; =0x000AE338 (ROM)
  04018A: F4EC  fmov   fr14,fr4
  04018C: E0EC  mov    #-20,r0
  04018E: 4E0B  jsr    @r14
  040190: F5C6  fmov.s @(r0,r12),fr5
  040192: FC0C  fmov   fr0,fr12
  040194: D474  mov.l  @(0x40368),r4  ; =0x000AE370 (ROM)
  040196: F4EC  fmov   fr14,fr4
  040198: E0EC  mov    #-20,r0
  04019A: 4E0B  jsr    @r14
  04019C: F5C6  fmov.s @(r0,r12),fr5
  04019E: E008  mov    #8,r0
  0401A0: FF07  fmov.s fr0,@(r0,r15)
  0401A2: FEFC  fmov   fr15,fr14
  0401A4: FFD1  fsub fr13,fr15
  0401A6: F4FC  fmov   fr15,fr4
  0401A8: D270  mov.l  @(0x4036C),r2  ; =0x000BE960 (ROM)
  0401AA: 420B  jsr    @r2
  0401AC: F58D  fldi0  fr5
  0401AE: F04D  fneg   fr0
  0401B0: E004  mov    #4,r0
  0401B2: F6F6  fmov.s @(r0,r15),fr6
  0401B4: FE6E  fmac   fr0,fr6,fr14
  0401B6: E0E0  mov    #-32,r0
  0401B8: FCE7  fmov.s fr14,@(r0,r12)
  0401BA: FECC  fmov   fr12,fr14
  0401BC: E008  mov    #8,r0
  0401BE: F8F6  fmov.s @(r0,r15),fr8
  0401C0: FC81  fsub fr8,fr12
  0401C2: F4CC  fmov   fr12,fr4
  0401C4: D269  mov.l  @(0x4036C),r2  ; =0x000BE960 (ROM)
  0401C6: 420B  jsr    @r2
  0401C8: F58D  fldi0  fr5
  0401CA: F04D  fneg   fr0
  0401CC: E004  mov    #4,r0
  0401CE: F6F6  fmov.s @(r0,r15),fr6
  0401D0: FE6E  fmac   fr0,fr6,fr14
  0401D2: E0E4  mov    #-28,r0
  0401D4: FCE7  fmov.s fr14,@(r0,r12)
  0401D6: F9F8  fmov.s @r15,fr9
  0401D8: F89C  fmov   fr9,fr8
  0401DA: F6C6  fmov.s @(r0,r12),fr6
  0401DC: F862  fmul fr6,fr8
  0401DE: F09D  fldi1  fr0
  0401E0: F091  fsub fr9,fr0
  0401E2: E0E0  mov    #-32,r0
  0401E4: F9C6  fmov.s @(r0,r12),fr9
  0401E6: F89E  fmac   fr0,fr9,fr8
  0401E8: E0F8  mov    #-8,r0
  0401EA: FC87  fmov.s fr8,@(r0,r12)
  0401EC: F0C6  fmov.s @(r0,r12),fr0
  0401EE: C456  mov.b  @(86,GBR),r0
  0401F0: 2008  tst r0,r0
  0401F2: 8B05  bf     0x40200
  0401F4: E0F8  mov    #-8,r0
  0401F6: F8C6  fmov.s @(r0,r12),fr8
  0401F8: E0FC  mov    #-4,r0
  0401FA: FC87  fmov.s fr8,@(r0,r12)
  0401FC: E001  mov    #1,r0
  0401FE: C056  mov.b  r0,@(86,GBR)
  040200: E0FC  mov    #-4,r0
  040202: F8C6  fmov.s @(r0,r12),fr8
  040204: E0F8  mov    #-8,r0
  040206: F9C6  fmov.s @(r0,r12),fr9
  040208: F891  fsub fr9,fr8
  04020A: D259  mov.l  @(0x40370),r2  ; =0x000D2B08 [cal:TimBlend_CorrThreshold]
  04020C: F928  fmov.s @r2,fr9
  04020E: F985  fcmp/gt fr8,fr9
  040210: 8908  bt     0x40224
  040212: E0FC  mov    #-4,r0
  040214: F0C6  fmov.s @(r0,r12),fr0
  040216: E0F8  mov    #-8,r0
  040218: F9C6  fmov.s @(r0,r12),fr9
  04021A: F090  fadd fr9,fr0
  04021C: C755  mova   @(0x40374),r0
  04021E: F908  fmov.s @r0,fr9
  040220: A00D  bra    0x4023E
  040222: F092  fmul fr9,fr0
  040224: 60DC  extu.b r13,r0
  040226: 8801  cmp/eq #1,r0
  040228: 8B09  bf     0x4023E
  04022A: D253  mov.l  @(0x40378),r2  ; =0x000BEA40 (ROM)
  04022C: E0F8  mov    #-8,r0
  04022E: F4C6  fmov.s @(r0,r12),fr4
  040230: C752  mova   @(0x4037C),r0
  040232: F708  fmov.s @r0,fr7
  040234: D652  mov.l  @(0x40380),r6  ; =0x000D2B0C [cal:TimBlend_HalfRatio]
  040236: F668  fmov.s @r6,fr6
  040238: E0E8  mov    #-24,r0
  04023A: 420B  jsr    @r2
  04023C: F5C6  fmov.s @(r0,r12),fr5
  04023E: E0E8  mov    #-24,r0
  040240: FC07  fmov.s fr0,@(r0,r12)
  040242: E0F8  mov    #-8,r0
  040244: F8C6  fmov.s @(r0,r12),fr8
  040246: E0FC  mov    #-4,r0
  040248: FC87  fmov.s fr8,@(r0,r12)
  04024A: E0B8  mov    #-72,r0
  04024C: FFC6  fmov.s @(r0,r12),fr15
  04024E: E0E8  mov    #-24,r0
  040250: FEC6  fmov.s @(r0,r12),fr14
  040252: E0B0  mov    #-80,r0
  040254: FEF5  fcmp/gt fr15,fr14
  040256: 8D0C  bt/s   0x40272
  040258: FCC6  fmov.s @(r0,r12),fr12
  04025A: D24A  mov.l  @(0x40384),r2  ; =0x000BE608 (ROM)
  04025C: F58D  fldi0  fr5
  04025E: F4CC  fmov   fr12,fr4
  040260: C749  mova   @(0x40388),r0
  040262: 420B  jsr    @r2
  040264: F608  fmov.s @r0,fr6
  040266: 620C  extu.b r0,r2
  040268: 2228  tst r2,r2
  04026A: 8902  bt     0x40272
  04026C: E0AC  mov    #-84,r0
  04026E: A009  bra    0x40284
  040270: FCE7  fmov.s fr14,@(r0,r12)
  040272: D241  mov.l  @(0x40378),r2  ; =0x000BEA40 (ROM)
  040274: C741  mova   @(0x4037C),r0
  040276: F708  fmov.s @r0,fr7
  040278: F5FC  fmov   fr15,fr5
  04027A: F6CC  fmov   fr12,fr6
  04027C: 420B  jsr    @r2
  04027E: F4EC  fmov   fr14,fr4
  040280: E0AC  mov    #-84,r0
  040282: FC07  fmov.s fr0,@(r0,r12)
  040284: 7F0C  add    #12,r15
  040286: 4F17  ldc.l  @r15+,GBR
  040288: FFF9  fmov.s @r15+,fr15
  04028A: FEF9  fmov.s @r15+,fr14
  04028C: FDF9  fmov.s @r15+,fr13
  04028E: FCF9  fmov.s @r15+,fr12
  040290: 4F26  lds.l  @r15+,PR
  040292: 6EF6  mov.l  @r15+,r14
  040294: 6DF6  mov.l  @r15+,r13
  040296: 000B  rts
  040298: 6CF6  mov.l  @r15+,r12
  04029A: 4F22  sts.l  PR,@-r15
  04029C: 7FFC  add    #-4,r15
  04029E: D63B  mov.l  @(0x4038C),r6  ; =0xFFFF8075 (RAM) [si_drive_mode]
  0402A0: 6060  mov.b  @r6,r0
  0402A2: C802  tst    #2,r0
  0402A4: 366A  subc r6,r6
  0402A6: 7601  add    #1,r6
  0402A8: 2F60  mov.b  r6,@r15
  0402AA: D12A  mov.l  @(0x40354),r1  ; =0xFFFF7F60 (RAM) [map_ratio]
  0402AC: 8413  mov.b  @(3,r1),r0
  0402AE: 2008  tst r0,r0
  0402B0: 8B05  bf     0x402BE
  0402B2: 606C  extu.b r6,r0
  0402B4: 8801  cmp/eq #1,r0
  0402B6: 8B02  bf     0x402BE
  0402B8: E200  mov    #0,r2
  0402BA: A007  bra    0x402CC
  0402BC: 2121  mov.w  r2,@r1
  0402BE: D234  mov.l  @(0x40390),r2  ; =0x000BE554 (ROM)
  0402C0: 6611  mov.w  @r1,r6
  0402C2: 646D  extu.w r6,r4
  0402C4: 420B  jsr    @r2
  0402C6: E501  mov    #1,r5
  0402C8: D122  mov.l  @(0x40354),r1  ; =0xFFFF7F60 (RAM) [map_ratio]
  0402CA: 2101  mov.w  r0,@r1
  0402CC: 60F0  mov.b  @r15,r0
  0402CE: 7F04  add    #4,r15
  0402D0: 4F26  lds.l  @r15+,PR
  0402D2: 000B  rts
  0402D4: 8013  mov.b  r0,@(3,r1)
  0402D6: E2FF  mov    #-1,r2
  0402D8: D51E  mov.l  @(0x40354),r5  ; =0xFFFF7F60 (RAM) [map_ratio]
  0402DA: 2521  mov.w  r2,@r5
  0402DC: D22D  mov.l  @(0x40394),r2  ; =0x000D2AE8 [cal:TimBlend_LookupInputThreshold]
  0402DE: F828  fmov.s @r2,fr8
  0402E0: E0C0  mov    #-64,r0
  0402E2: F587  fmov.s fr8,@(r0,r5)
  0402E4: 4F22  sts.l  PR,@-r15
  0402E6: D22C  mov.l  @(0x40398),r2  ; =0x00022F92 (ROM)
  0402E8: 420B  jsr    @r2
  0402EA: 0009  nop
  0402EC: 600C  extu.b r0,r0
  0402EE: 8801  cmp/eq #1,r0
  0402F0: 8B0D  bf     0x4030E
  0402F2: E000  mov    #0,r0
  0402F4: D629  mov.l  @(0x4039C),r6  ; =0xFFFF7F60 (RAM) [map_ratio]
  0402F6: B00D  bsr    0x40314
  0402F8: 8062  mov.b  r0,@(2,r6)
  0402FA: D628  mov.l  @(0x4039C),r6  ; =0xFFFF7F60 (RAM) [map_ratio]
  0402FC: E0CC  mov    #-52,r0
  0402FE: F866  fmov.s @(r0,r6),fr8
  040300: E0C8  mov    #-56,r0
  040302: F687  fmov.s fr8,@(r0,r6)
  040304: F89D  fldi1  fr8
  040306: E0DC  mov    #-36,r0
  040308: F687  fmov.s fr8,@(r0,r6)
  04030A: E000  mov    #0,r0
  04030C: 8065  mov.b  r0,@(5,r6)
  04030E: 4F26  lds.l  @r15+,PR
  040310: 000B  rts
  040312: 0009  nop
  040314: 2FE6  mov.l  r14,@-r15
  040316: 4F22  sts.l  PR,@-r15
  040318: FFEB  fmov.s fr14,@-r15
  04031A: D221  mov.l  @(0x403A0),r2  ; =0xFFFF6350 (RAM) [ect_current]
  04031C: FE28  fmov.s @r2,fr14
  04031E: D621  mov.l  @(0x403A4),r6  ; =0xFFFF65C0 (RAM) [throttle_position]
  040320: D221  mov.l  @(0x403A8),r2  ; =0x00021016 (ROM)
  040322: 420B  jsr    @r2
  040324: 6E60  mov.b  @r6,r14
  040326: 2EE8  tst r14,r14
  040328: 8F06  bf/s   0x40338
  04032A: 620C  extu.b r0,r2
  04032C: 2228  tst r2,r2
  04032E: D41F  mov.l  @(0x403AC),r4  ; =0x000ADB60 (ROM)
  040330: 8B06  bf     0x40340
  040332: D41F  mov.l  @(0x403B0),r4  ; =0x000ADB4C (ROM)
  040334: A004  bra    0x40340
  040336: 0009  nop
  040338: 2228  tst r2,r2
  04033A: D41E  mov.l  @(0x403B4),r4  ; =0x000ADB88 (ROM)
  04033C: 8B00  bf     0x40340
  04033E: D41E  mov.l  @(0x403B8),r4  ; =0x000ADB74 (ROM)
  040340: D21E  mov.l  @(0x403BC),r2  ; =0x000BE830 [func:table_desc_1d_float]
  040342: 420B  jsr    @r2
  040344: F4EC  fmov   fr14,fr4
  040346: D21E  mov.l  @(0x403C0),r2  ; =0xFFFF7F2C (RAM)
  040348: F20A  fmov.s fr0,@r2
  04034A: FEF9  fmov.s @r15+,fr14
  04034C: 4F26  lds.l  @r15+,PR
  04034E: 000B  rts
  040350: 6EF6  mov.l  @r15+,r14
  040352: 0000  .word  0x0000
  040354: FFFF  .word  0xFFFF  ; FPU
  040356: 7F60  add    #96,r15
  040358: 000A  sts    MACH,r0
  04035A: E31C  mov    #28,r3
  04035C: 000B  rts
  04035E: E8E4  mov    #-28,r8
  040360: 000A  sts    MACH,r0
  040362: E354  mov    #84,r3
  040364: 000A  sts    MACH,r0
  040366: E338  mov    #56,r3
  040368: 000A  sts    MACH,r0
  04036A: E370  mov    #112,r3
  04036C: 000B  rts
  04036E: E960  mov    #96,r9
  040370: 000D  mov.w  @(r0,r0),r0
  040372: 2B08  tst r0,r11
  040374: 3F00  cmp/eq r0,r15
  040376: 0000  .word  0x0000
  040378: 000B  rts
  04037A: EA40  mov    #64,r10
  04037C: 3EB4  div1 r11,r14
  04037E: 0000  .word  0x0000
  040380: 000D  mov.w  @(r0,r0),r0
  040382: 2B0C  cmp/str r0,r11
  040384: 000B  rts
  040386: E608  mov    #8,r6
  040388: 3B80  cmp/eq r8,r11
  04038A: 0000  .word  0x0000
  04038C: FFFF  .word  0xFFFF  ; FPU
  04038E: 8075  mov.b  r0,@(5,r7)
  040390: 000B  rts
  040392: E554  mov    #84,r5
  040394: 000D  mov.w  @(r0,r0),r0
  040396: 2AE8  tst r14,r10
  040398: 0002  stc    SR,r0
  04039A: 2F92  mov.l  r9,@r15
  04039C: FFFF  .word  0xFFFF  ; FPU
  04039E: 7F60  add    #96,r15
  0403A0: FFFF  .word  0xFFFF  ; FPU
  0403A2: 6350  mov.b  @r5,r3
  0403A4: FFFF  .word  0xFFFF  ; FPU
  0403A6: 65C0  mov.b  @r12,r5
  0403A8: 0002  stc    SR,r0
  0403AA: 1016  mov.l  r1,@(24,r0)
  0403AC: 000A  sts    MACH,r0
  0403AE: DB60  mov.l  @(0x40530),r11  ; =0x2FC62FD6
  0403B0: 000A  sts    MACH,r0
  0403B2: DB4C  mov.l  @(0x404E4),r11  ; =0xC038D663 (-2.88809)
  0403B4: 000A  sts    MACH,r0
  0403B6: DB88  mov.l  @(0x405D8),r11  ; =0xE0D0FE87
  0403B8: 000A  sts    MACH,r0
  0403BA: DB74  mov.l  @(0x4058C),r11  ; =0x6260E014
  0403BC: 000B  rts
  0403BE: E830  mov    #48,r8
  0403C0: FFFF  .word  0xFFFF  ; FPU
  0403C2: 7F2C  add    #44,r15
  0403C4: 4F22  sts.l  PR,@-r15
  0403C6: D20D  mov.l  @(0x403FC),r2  ; =0xFFFF6350 (RAM) [ect_current]
  0403C8: F428  fmov.s @r2,fr4
  0403CA: D60D  mov.l  @(0x40400),r6  ; =0xFFFF90BE (RAM) [timing_ws_scratch]
  0403CC: 6660  mov.b  @r6,r6
  0403CE: D20D  mov.l  @(0x40404),r2  ; =0xFFFF6254 (RAM) [engine_state]
  0403D0: 6520  mov.b  @r2,r5
  0403D2: 2668  tst r6,r6
  0403D4: 8F06  bf/s   0x403E4
  0403D6: 605C  extu.b r5,r0
  0403D8: 8801  cmp/eq #1,r0
  0403DA: D40B  mov.l  @(0x40408),r4  ; =0x000ADBD8 (ROM)
  0403DC: 8B06  bf     0x403EC
  0403DE: D40B  mov.l  @(0x4040C),r4  ; =0x000ADBC4 (ROM)
  0403E0: A004  bra    0x403EC
  0403E2: 0009  nop
  0403E4: 8801  cmp/eq #1,r0
  0403E6: D40A  mov.l  @(0x40410),r4  ; =0x000ADC00 (ROM)
  0403E8: 8B00  bf     0x403EC
  0403EA: D40A  mov.l  @(0x40414),r4  ; =0x000ADBEC (ROM)
  0403EC: D20A  mov.l  @(0x40418),r2  ; =0x000BE830 [func:table_desc_1d_float]
  0403EE: 420B  jsr    @r2
  0403F0: 0009  nop
  0403F2: D20A  mov.l  @(0x4041C),r2  ; =0xFFFF7F68 (RAM)
  0403F4: 4F26  lds.l  @r15+,PR
  0403F6: 000B  rts
  0403F8: F20A  fmov.s fr0,@r2
  0403FA: 0000  .word  0x0000
  0403FC: FFFF  .word  0xFFFF  ; FPU
  0403FE: 6350  mov.b  @r5,r3
  040400: FFFF  .word  0xFFFF  ; FPU
  040402: 90BE  mov.w  @(0x40582),r0  ; =0xD63B (54843)
  040404: FFFF  .word  0xFFFF  ; FPU
  040406: 6254  mov.b  @r5+,r2
  040408: 000A  sts    MACH,r0
  04040A: DBD8  mov.l  @(0x4076C),r11  ; =0x88018901
  04040C: 000A  sts    MACH,r0
  04040E: DBC4  mov.l  @(0x40720),r11  ; =0x1F096E03
  040410: 000A  sts    MACH,r0
  040412: DC00  mov.l  @(0x40414),r12  ; =0x000ADBEC (ROM)
  040414: 000A  sts    MACH,r0
  040416: DBEC  mov.l  @(0x407C8),r11  ; =0x666CE014
  040418: 000B  rts
  04041A: E830  mov    #48,r8
  04041C: FFFF  .word  0xFFFF  ; FPU
  04041E: 7F68  add    #104,r15
  040420: 4F22  sts.l  PR,@-r15
  040422: FFEB  fmov.s fr14,@-r15
  040424: D20C  mov.l  @(0x40458),r2  ; =0xFFFF63F8 (RAM) [iat_current]
  040426: F528  fmov.s @r2,fr5
  040428: D20C  mov.l  @(0x4045C),r2  ; =0xFFFF6364 (RAM)
  04042A: FE28  fmov.s @r2,fr14
  04042C: D20C  mov.l  @(0x40460),r2  ; =0xFFFF6624 (RAM) [rpm_current]
  04042E: F428  fmov.s @r2,fr4
  040430: D40C  mov.l  @(0x40464),r4  ; =0x000AE38C (ROM)
  040432: D20D  mov.l  @(0x40468),r2  ; =0x000BE8E4 [func:table_desc_2d_typed]
  040434: 420B  jsr    @r2
  040436: 0009  nop
  040438: D60C  mov.l  @(0x4046C),r6  ; =0xFFFF7F70 (RAM)
  04043A: F60A  fmov.s fr0,@r6
  04043C: D40C  mov.l  @(0x40470),r4  ; =0x000ADC14 (ROM)
  04043E: D20D  mov.l  @(0x40474),r2  ; =0x000BE830 [func:table_desc_1d_float]
  040440: 420B  jsr    @r2
  040442: F4EC  fmov   fr14,fr4
  040444: D609  mov.l  @(0x4046C),r6  ; =0xFFFF7F70 (RAM)
  040446: F868  fmov.s @r6,fr8
  040448: F082  fmul fr8,fr0
  04044A: E0FC  mov    #-4,r0
  04044C: F607  fmov.s fr0,@(r0,r6)
  04044E: FEF9  fmov.s @r15+,fr14
  040450: 4F26  lds.l  @r15+,PR
  040452: 000B  rts
  040454: 0009  nop
  040456: 0000  .word  0x0000
  040458: FFFF  .word  0xFFFF  ; FPU
  04045A: 63F8  swap.b r15,r3
  04045C: FFFF  .word  0xFFFF  ; FPU
  04045E: 6364  mov.b  @r6+,r3
  040460: FFFF  .word  0xFFFF  ; FPU
  040462: 6624  mov.b  @r2+,r6
  040464: 000A  sts    MACH,r0
  040466: E38C  mov    #-116,r3
  040468: 000B  rts
  04046A: E8E4  mov    #-28,r8
  04046C: FFFF  .word  0xFFFF  ; FPU
  04046E: 7F70  add    #112,r15
  040470: 000A  sts    MACH,r0
  040472: DC14  mov.l  @(0x404C4),r12  ; =0x420B0009 (34.75)
  040474: 000B  rts
  040476: E830  mov    #48,r8
  040478: 4F13  .word  0x4F13
  04047A: D079  mov.l  @(0x40660),r0  ; =0xFFFF7F8C (RAM)
  04047C: 401E  ldc    r0,GBR
  04047E: D679  mov.l  @(0x40664),r6  ; =0xFFFF65C0 (RAM) [throttle_position]
  040480: 6060  mov.b  @r6,r0
  040482: C01D  mov.b  r0,@(29,GBR)
  040484: D678  mov.l  @(0x40668),r6  ; =0xFFFF5BE2 (RAM)
  040486: 6060  mov.b  @r6,r0
  040488: C01E  mov.b  r0,@(30,GBR)
  04048A: D678  mov.l  @(0x4066C),r6  ; =0xFFFF65C6 (RAM)
  04048C: 6060  mov.b  @r6,r0
  04048E: C01F  mov.b  r0,@(31,GBR)
  040490: D677  mov.l  @(0x40670),r6  ; =0xFFFF65C7 (RAM)
  040492: 6060  mov.b  @r6,r0
  040494: C020  mov.b  r0,@(32,GBR)
  040496: D677  mov.l  @(0x40674),r6  ; =0xFFFF65C8 (RAM)
  040498: 6060  mov.b  @r6,r0
  04049A: C021  mov.b  r0,@(33,GBR)
  04049C: D676  mov.l  @(0x40678),r6  ; =0xFFFF8A74 (RAM)
  04049E: 6060  mov.b  @r6,r0
  0404A0: C022  mov.b  r0,@(34,GBR)
  0404A2: D276  mov.l  @(0x4067C),r2  ; =0xFFFF895C (RAM)
  0404A4: F828  fmov.s @r2,fr8
  0404A6: D26E  mov.l  @(0x40660),r2  ; =0xFFFF7F8C (RAM)
  0404A8: F28A  fmov.s fr8,@r2
  0404AA: D675  mov.l  @(0x40680),r6  ; =0xFFFF8E09 (RAM)
  0404AC: 6060  mov.b  @r6,r0
  0404AE: C01C  mov.b  r0,@(28,GBR)
  0404B0: E001  mov    #1,r0
  0404B2: C01A  mov.b  r0,@(26,GBR)
  0404B4: C018  mov.b  r0,@(24,GBR)
  0404B6: 000B  rts
  0404B8: 4F17  ldc.l  @r15+,GBR
  0404BA: 4F22  sts.l  PR,@-r15
  0404BC: 4F13  .word  0x4F13
  0404BE: D071  mov.l  @(0x40684),r0  ; =0xFFFF7F74 (RAM)
  0404C0: 401E  ldc    r0,GBR
  0404C2: D271  mov.l  @(0x40688),r2  ; =0x00022F92 (ROM)
  0404C4: 420B  jsr    @r2
  0404C6: 0009  nop
  0404C8: 600C  extu.b r0,r0
  0404CA: 8801  cmp/eq #1,r0
  0404CC: 8B1F  bf     0x4050E
  0404CE: D665  mov.l  @(0x40664),r6  ; =0xFFFF65C0 (RAM) [throttle_position]
  0404D0: 6060  mov.b  @r6,r0
  0404D2: C035  mov.b  r0,@(53,GBR)
  0404D4: D664  mov.l  @(0x40668),r6  ; =0xFFFF5BE2 (RAM)
  0404D6: 6060  mov.b  @r6,r0
  0404D8: C036  mov.b  r0,@(54,GBR)
  0404DA: D664  mov.l  @(0x4066C),r6  ; =0xFFFF65C6 (RAM)
  0404DC: 6060  mov.b  @r6,r0
  0404DE: C037  mov.b  r0,@(55,GBR)
  0404E0: D663  mov.l  @(0x40670),r6  ; =0xFFFF65C7 (RAM)
  0404E2: 6060  mov.b  @r6,r0
  0404E4: C038  mov.b  r0,@(56,GBR)
  0404E6: D663  mov.l  @(0x40674),r6  ; =0xFFFF65C8 (RAM)
  0404E8: 6060  mov.b  @r6,r0
  0404EA: C039  mov.b  r0,@(57,GBR)
  0404EC: D662  mov.l  @(0x40678),r6  ; =0xFFFF8A74 (RAM)
  0404EE: 6060  mov.b  @r6,r0
  0404F0: C03A  mov.b  r0,@(58,GBR)
  0404F2: D262  mov.l  @(0x4067C),r2  ; =0xFFFF895C (RAM)
  0404F4: F828  fmov.s @r2,fr8
  0404F6: D25A  mov.l  @(0x40660),r2  ; =0xFFFF7F8C (RAM)
  0404F8: F28A  fmov.s fr8,@r2
  0404FA: D661  mov.l  @(0x40680),r6  ; =0xFFFF8E09 (RAM)
  0404FC: 6060  mov.b  @r6,r0
  0404FE: C034  mov.b  r0,@(52,GBR)
  040500: E000  mov    #0,r0
  040502: C00C  mov.b  r0,@(12,GBR)
  040504: F88D  fldi0  fr8
  040506: D25F  mov.l  @(0x40684),r2  ; =0xFFFF7F74 (RAM)
  040508: F28A  fmov.s fr8,@r2
  04050A: C00D  mov.b  r0,@(13,GBR)
  04050C: C00E  mov.b  r0,@(14,GBR)
  04050E: 4F17  ldc.l  @r15+,GBR
  040510: 4F26  lds.l  @r15+,PR
  040512: 000B  rts
  040514: 0009  nop
  040516: 4F22  sts.l  PR,@-r15
  040518: B002  bsr    0x40520
  04051A: 0009  nop
  04051C: A004  bra    0x40528
  04051E: 4F26  lds.l  @r15+,PR
  040520: E200  mov    #0,r2
  040522: D65A  mov.l  @(0x4068C),r6  ; =0xFFFF7F82 (RAM) [throttle_timing_corr]
  040524: 000B  rts
  040526: 2620  mov.b  r2,@r6
  040528: 2F86  mov.l  r8,@-r15
  04052A: 2F96  mov.l  r9,@-r15
  04052C: 2FA6  mov.l  r10,@-r15
  04052E: 2FB6  mov.l  r11,@-r15
  040530: 2FC6  mov.l  r12,@-r15
  040532: 2FD6  mov.l  r13,@-r15
  040534: 2FE6  mov.l  r14,@-r15
  040536: 4F22  sts.l  PR,@-r15
  040538: FFCB  fmov.s fr12,@-r15
  04053A: FFDB  fmov.s fr13,@-r15
  04053C: FFEB  fmov.s fr14,@-r15
  04053E: FFFB  fmov.s fr15,@-r15
  040540: 4F13  .word  0x4F13
  040542: D050  mov.l  @(0x40684),r0  ; =0xFFFF7F74 (RAM)
  040544: 401E  ldc    r0,GBR
  040546: 7FB0  add    #-80,r15
  040548: D251  mov.l  @(0x40690),r2  ; =0xFFFF6624 (RAM) [rpm_current]
  04054A: FC28  fmov.s @r2,fr12
  04054C: D251  mov.l  @(0x40694),r2  ; =0xFFFF6630 (RAM)
  04054E: FE28  fmov.s @r2,fr14
  040550: D24A  mov.l  @(0x4067C),r2  ; =0xFFFF895C (RAM)
  040552: F828  fmov.s @r2,fr8
  040554: FF8A  fmov.s fr8,@r15
  040556: D250  mov.l  @(0x40698),r2  ; =0xFFFF65FC (RAM)
  040558: FF28  fmov.s @r2,fr15
  04055A: D250  mov.l  @(0x4069C),r2  ; =0xFFFF663C (RAM)
  04055C: F828  fmov.s @r2,fr8
  04055E: E004  mov    #4,r0
  040560: FF87  fmov.s fr8,@(r0,r15)
  040562: D64F  mov.l  @(0x406A0),r6  ; =0xFFFF67EC (RAM) [engine_run_time]
  040564: D24F  mov.l  @(0x406A4),r2  ; =0x00021016 (ROM)
  040566: 420B  jsr    @r2
  040568: 6C61  mov.w  @r6,r12
  04056A: 80F8  mov.b  r0,@(8,r15)
  04056C: D64E  mov.l  @(0x406A8),r6  ; =0xFFFF6254 (RAM) [engine_state]
  04056E: D24F  mov.l  @(0x406AC),r2  ; =0x0002F8EA (ROM)
  040570: 420B  jsr    @r2
  040572: 6B60  mov.b  @r6,r11
  040574: 80FC  mov.b  r0,@(12,r15)
  040576: D63B  mov.l  @(0x40664),r6  ; =0xFFFF65C0 (RAM) [throttle_position]
  040578: 6960  mov.b  @r6,r9
  04057A: D63B  mov.l  @(0x40668),r6  ; =0xFFFF5BE2 (RAM)
  04057C: 6A60  mov.b  @r6,r10
  04057E: D63B  mov.l  @(0x4066C),r6  ; =0xFFFF65C6 (RAM)
  040580: 6860  mov.b  @r6,r8
  040582: D63B  mov.l  @(0x40670),r6  ; =0xFFFF65C7 (RAM)
  040584: 6260  mov.b  @r6,r2
  040586: E010  mov    #16,r0
  040588: 0F24  mov.b  r2,@(r0,r15)
  04058A: D63A  mov.l  @(0x40674),r6  ; =0xFFFF65C8 (RAM)
  04058C: 6260  mov.b  @r6,r2
  04058E: E014  mov    #20,r0
  040590: 0F24  mov.b  r2,@(r0,r15)
  040592: D639  mov.l  @(0x40678),r6  ; =0xFFFF8A74 (RAM)
  040594: 6260  mov.b  @r6,r2
  040596: E018  mov    #24,r0
  040598: 0F24  mov.b  r2,@(r0,r15)
  04059A: D639  mov.l  @(0x40680),r6  ; =0xFFFF8E09 (RAM)
  04059C: 6260  mov.b  @r6,r2
  04059E: E01C  mov    #28,r0
  0405A0: D543  mov.l  @(0x406B0),r5  ; =0x00022CF4 (ROM)
  0405A2: 450B  jsr    @r5
  0405A4: 0F24  mov.b  r2,@(r0,r15)
  0405A6: 6503  mov    r0,r5
  0405A8: E020  mov    #32,r0
  0405AA: 0F54  mov.b  r5,@(r0,r15)
  0405AC: D241  mov.l  @(0x406B4),r2  ; =0xFFFF7FBC (RAM)
  0405AE: FD28  fmov.s @r2,fr13
  0405B0: 84FC  mov.b  @(12,r15),r0
  0405B2: 2008  tst r0,r0
  0405B4: 8B07  bf     0x405C6
  0405B6: F6F8  fmov.s @r15,fr6
  0405B8: D23F  mov.l  @(0x406B8),r2  ; =0x000D2B20 (ROM)
  0405BA: F928  fmov.s @r2,fr9
  0405BC: F690  fadd fr9,fr6
  0405BE: F6C5  fcmp/gt fr12,fr6
  0405C0: 8901  bt     0x405C6
  0405C2: E001  mov    #1,r0
  0405C4: C00C  mov.b  r0,@(12,GBR)
  0405C6: FEC1  fsub fr12,fr14
  0405C8: DE3C  mov.l  @(0x406BC),r14  ; =0xFFFF7FAC (RAM)
  0405CA: E0CC  mov    #-52,r0
  0405CC: FEE7  fmov.s fr14,@(r0,r14)
  0405CE: F8CC  fmov   fr12,fr8
  0405D0: F6F8  fmov.s @r15,fr6
  0405D2: F861  fsub fr6,fr8
  0405D4: F98C  fmov   fr8,fr9
  0405D6: F84D  fneg   fr8
  0405D8: E0D0  mov    #-48,r0
  0405DA: FE87  fmov.s fr8,@(r0,r14)
  0405DC: D238  mov.l  @(0x406C0),r2  ; =0x000D2B2C (ROM)
  0405DE: F828  fmov.s @r2,fr8
  0405E0: F8F5  fcmp/gt fr15,fr8
  0405E2: 8B02  bf     0x405EA
  0405E4: E001  mov    #1,r0
  0405E6: A006  bra    0x405F6
  0405E8: C030  mov.b  r0,@(48,GBR)
  0405EA: D236  mov.l  @(0x406C4),r2  ; =0x000D2B30 (ROM)
  0405EC: F828  fmov.s @r2,fr8
  0405EE: F8F5  fcmp/gt fr15,fr8
  0405F0: 8901  bt     0x405F6
  0405F2: E000  mov    #0,r0
  0405F4: C030  mov.b  r0,@(48,GBR)
  0405F6: D234  mov.l  @(0x406C8),r2  ; =0x000D2B38 (ROM)
  0405F8: F828  fmov.s @r2,fr8
  0405FA: FC85  fcmp/gt fr8,fr12
  0405FC: 8B02  bf     0x40604
  0405FE: E001  mov    #1,r0
  040600: A006  bra    0x40610
  040602: C031  mov.b  r0,@(49,GBR)
  040604: D231  mov.l  @(0x406CC),r2  ; =0x000D2B34 (ROM)
  040606: F828  fmov.s @r2,fr8
  040608: FC85  fcmp/gt fr8,fr12
  04060A: 8901  bt     0x40610
  04060C: E000  mov    #0,r0
  04060E: C031  mov.b  r0,@(49,GBR)
  040610: DE2A  mov.l  @(0x406BC),r14  ; =0xFFFF7FAC (RAM)
  040612: E0D8  mov    #-40,r0
  040614: FE97  fmov.s fr9,@(r0,r14)
  040616: D42E  mov.l  @(0x406D0),r4  ; =0x000AE158 (ROM)
  040618: D12E  mov.l  @(0x406D4),r1  ; =0x000BE830 [func:table_desc_1d_float]
  04061A: E004  mov    #4,r0
  04061C: 410B  jsr    @r1
  04061E: F4F6  fmov.s @(r0,r15),fr4
  040620: E0DC  mov    #-36,r0
  040622: FE07  fmov.s fr0,@(r0,r14)
  040624: E0D8  mov    #-40,r0
  040626: F9E6  fmov.s @(r0,r14),fr9
  040628: E0DC  mov    #-36,r0
  04062A: F8E6  fmov.s @(r0,r14),fr8
  04062C: F895  fcmp/gt fr9,fr8
  04062E: 8B02  bf     0x40636
  040630: E001  mov    #1,r0
  040632: A00B  bra    0x4064C
  040634: C032  mov.b  r0,@(50,GBR)
  040636: E0DC  mov    #-36,r0
  040638: F8E6  fmov.s @(r0,r14),fr8
  04063A: D227  mov.l  @(0x406D8),r2  ; =0x000D2B3C (ROM)
  04063C: F928  fmov.s @r2,fr9
  04063E: F890  fadd fr9,fr8
  040640: E0D8  mov    #-40,r0
  040642: F9E6  fmov.s @(r0,r14),fr9
  040644: F895  fcmp/gt fr9,fr8
  040646: 8901  bt     0x4064C
  040648: E000  mov    #0,r0
  04064A: C032  mov.b  r0,@(50,GBR)
  04064C: D21B  mov.l  @(0x406BC),r2  ; =0xFFFF7FAC (RAM)
  04064E: E0D8  mov    #-40,r0
  040650: F926  fmov.s @(r0,r2),fr9
  040652: D222  mov.l  @(0x406DC),r2  ; =0x000D2B44 (ROM)
  040654: F828  fmov.s @r2,fr8
  040656: F985  fcmp/gt fr8,fr9
  040658: 8B42  bf     0x406E0
  04065A: E001  mov    #1,r0
  04065C: A049  bra    0x406F2
  04065E: C033  mov.b  r0,@(51,GBR)
  040660: FFFF  .word  0xFFFF  ; FPU
  040662: 7F8C  add    #-116,r15
  040664: FFFF  .word  0xFFFF  ; FPU
  040666: 65C0  mov.b  @r12,r5
  040668: FFFF  .word  0xFFFF  ; FPU
  04066A: 5BE2  mov.l  @(8,r14),r11
  04066C: FFFF  .word  0xFFFF  ; FPU
  04066E: 65C6  mov.l  @r12+,r5
  040670: FFFF  .word  0xFFFF  ; FPU
  040672: 65C7  not    r12,r5
  040674: FFFF  .word  0xFFFF  ; FPU
  040676: 65C8  swap.b r12,r5
  040678: FFFF  .word  0xFFFF  ; FPU
  04067A: 8A74  .word  0x8A74
  04067C: FFFF  .word  0xFFFF  ; FPU
  04067E: 895C  bt     0x4073A
  040680: FFFF  .word  0xFFFF  ; FPU
  040682: 8E09  .word  0x8E09
  040684: FFFF  .word  0xFFFF  ; FPU
  040686: 7F74  add    #116,r15
  040688: 0002  stc    SR,r0
  04068A: 2F92  mov.l  r9,@r15
  04068C: FFFF  .word  0xFFFF  ; FPU
  04068E: 7F82  add    #-126,r15
  040690: FFFF  .word  0xFFFF  ; FPU
  040692: 6624  mov.b  @r2+,r6
  040694: FFFF  .word  0xFFFF  ; FPU
  040696: 6630  mov.b  @r3,r6
  040698: FFFF  .word  0xFFFF  ; FPU
  04069A: 65FC  extu.b r15,r5
  04069C: FFFF  .word  0xFFFF  ; FPU
  04069E: 663C  extu.b r3,r6
  0406A0: FFFF  .word  0xFFFF  ; FPU
  0406A2: 67EC  extu.b r14,r7
  0406A4: 0002  stc    SR,r0
  0406A6: 1016  mov.l  r1,@(24,r0)
  0406A8: FFFF  .word  0xFFFF  ; FPU
  0406AA: 6254  mov.b  @r5+,r2
  0406AC: 0002  stc    SR,r0
  0406AE: F8EA  fmov.s fr14,@r8
  0406B0: 0002  stc    SR,r0
  0406B2: 2CF4  mov.b  r15,@-r12
  0406B4: FFFF  .word  0xFFFF  ; FPU
  0406B6: 7FBC  add    #-68,r15
  0406B8: 000D  mov.w  @(r0,r0),r0
  0406BA: 2B20  mov.b  r2,@r11
  0406BC: FFFF  .word  0xFFFF  ; FPU
  0406BE: 7FAC  add    #-84,r15
  0406C0: 000D  mov.w  @(r0,r0),r0
  0406C2: 2B2C  cmp/str r2,r11
  0406C4: 000D  mov.w  @(r0,r0),r0
  0406C6: 2B30  mov.b  r3,@r11
  0406C8: 000D  mov.w  @(r0,r0),r0
  0406CA: 2B38  tst r3,r11
  0406CC: 000D  mov.w  @(r0,r0),r0
  0406CE: 2B34  mov.b  r3,@-r11
  0406D0: 000A  sts    MACH,r0
  0406D2: E158  mov    #88,r1
  0406D4: 000B  rts
  0406D6: E830  mov    #48,r8
  0406D8: 000D  mov.w  @(r0,r0),r0
  0406DA: 2B3C  cmp/str r3,r11
  0406DC: 000D  mov.w  @(r0,r0),r0
  0406DE: 2B44  mov.b  r4,@-r11
  0406E0: D27E  mov.l  @(0x408DC),r2  ; =0xFFFF7FAC (RAM)
  0406E2: E0D8  mov    #-40,r0
  0406E4: F926  fmov.s @(r0,r2),fr9
  0406E6: D27E  mov.l  @(0x408E0),r2  ; =0x000D2B40 (ROM)
  0406E8: F828  fmov.s @r2,fr8
  0406EA: F985  fcmp/gt fr8,fr9
  0406EC: 8901  bt     0x406F2
  0406EE: E000  mov    #0,r0
  0406F0: C033  mov.b  r0,@(51,GBR)
  0406F2: C432  mov.b  @(50,GBR),r0
  0406F4: 8801  cmp/eq #1,r0
  0406F6: 8903  bt     0x40700
  0406F8: C433  mov.b  @(51,GBR),r0
  0406FA: 8801  cmp/eq #1,r0
  0406FC: 8F01  bf/s   0x40702
  0406FE: ED00  mov    #0,r13
  040700: ED01  mov    #1,r13
  040702: D278  mov.l  @(0x408E4),r2  ; =0x000BEAB0 (ROM)
  040704: F4F8  fmov.s @r15,fr4
  040706: DE75  mov.l  @(0x408DC),r14  ; =0xFFFF7FAC (RAM)
  040708: E0E0  mov    #-32,r0
  04070A: 420B  jsr    @r2
  04070C: F5E6  fmov.s @(r0,r14),fr5
  04070E: E0E4  mov    #-28,r0
  040710: FE07  fmov.s fr0,@(r0,r14)
  040712: D475  mov.l  @(0x408E8),r4  ; =0x000ADC28 (ROM)
  040714: D175  mov.l  @(0x408EC),r1  ; =0x000BE830 [func:table_desc_1d_float]
  040716: 410B  jsr    @r1
  040718: F4DC  fmov   fr13,fr4
  04071A: E0F4  mov    #-12,r0
  04071C: FE07  fmov.s fr0,@(r0,r14)
  04071E: C40D  mov.b  @(13,GBR),r0
  040720: 1F09  mov.l  r0,@(36,r15)
  040722: 6E03  mov    r0,r14
  040724: C431  mov.b  @(49,GBR),r0
  040726: 1F0A  mov.l  r0,@(40,r15)
  040728: 600C  extu.b r0,r0
  04072A: 8801  cmp/eq #1,r0
  04072C: 8901  bt     0x40732
  04072E: A0AA  bra    0x40886
  040730: 0009  nop
  040732: D26F  mov.l  @(0x408F0),r2  ; =0x000D2B28 (ROM)
  040734: F828  fmov.s @r2,fr8
  040736: FC85  fcmp/gt fr8,fr12
  040738: 8B01  bf     0x4073E
  04073A: A0A4  bra    0x40886
  04073C: 0009  nop
  04073E: D26D  mov.l  @(0x408F4),r2  ; =0x000D29B4 (ROM)
  040740: 6621  mov.w  @r2,r6
  040742: 646D  extu.w r6,r4
  040744: 62CD  extu.w r12,r2
  040746: 3247  cmp/gt r4,r2
  040748: 8901  bt     0x4074E
  04074A: A09C  bra    0x40886
  04074C: 0009  nop
  04074E: 60BC  extu.b r11,r0
  040750: 8801  cmp/eq #1,r0
  040752: 8901  bt     0x40758
  040754: A097  bra    0x40886
  040756: 0009  nop
  040758: C40C  mov.b  @(12,GBR),r0
  04075A: 1F0B  mov.l  r0,@(44,r15)
  04075C: 600C  extu.b r0,r0
  04075E: 8801  cmp/eq #1,r0
  040760: 8901  bt     0x40766
  040762: A090  bra    0x40886
  040764: 0009  nop
  040766: C430  mov.b  @(48,GBR),r0
  040768: 1F0C  mov.l  r0,@(48,r15)
  04076A: 600C  extu.b r0,r0
  04076C: 8801  cmp/eq #1,r0
  04076E: 8901  bt     0x40774
  040770: A089  bra    0x40886
  040772: 0009  nop
  040774: 84F8  mov.b  @(8,r15),r0
  040776: F6F8  fmov.s @r15,fr6
  040778: F6C5  fcmp/gt fr12,fr6
  04077A: 8F01  bf/s   0x40780
  04077C: 640C  extu.b r0,r4
  04077E: EE01  mov    #1,r14
  040780: E020  mov    #32,r0
  040782: 05FC  mov.b  @(r0,r15),r5
  040784: 2558  tst r5,r5
  040786: 8B05  bf     0x40794
  040788: C435  mov.b  @(53,GBR),r0
  04078A: 660C  extu.b r0,r6
  04078C: 629C  extu.b r9,r2
  04078E: 3260  cmp/eq r6,r2
  040790: 8F68  bf/s   0x40864
  040792: 1F0D  mov.l  r0,@(52,r15)
  040794: C436  mov.b  @(54,GBR),r0
  040796: 660C  extu.b r0,r6
  040798: 62AC  extu.b r10,r2
  04079A: 3260  cmp/eq r6,r2
  04079C: 8F62  bf/s   0x40864
  04079E: 1F0E  mov.l  r0,@(56,r15)
  0407A0: C437  mov.b  @(55,GBR),r0
  0407A2: 660C  extu.b r0,r6
  0407A4: 628C  extu.b r8,r2
  0407A6: 3260  cmp/eq r6,r2
  0407A8: 8F5C  bf/s   0x40864
  0407AA: 1F0F  mov.l  r0,@(60,r15)
  0407AC: C438  mov.b  @(56,GBR),r0
  0407AE: 6603  mov    r0,r6
  0407B0: E040  mov    #64,r0
  0407B2: 0F66  mov.l  r6,@(r0,r15)
  0407B4: 666C  extu.b r6,r6
  0407B6: E010  mov    #16,r0
  0407B8: 07FC  mov.b  @(r0,r15),r7
  0407BA: 627C  extu.b r7,r2
  0407BC: 3260  cmp/eq r6,r2
  0407BE: 8B51  bf     0x40864
  0407C0: C439  mov.b  @(57,GBR),r0
  0407C2: 6603  mov    r0,r6
  0407C4: E044  mov    #68,r0
  0407C6: 0F66  mov.l  r6,@(r0,r15)
  0407C8: 666C  extu.b r6,r6
  0407CA: E014  mov    #20,r0
  0407CC: 05FC  mov.b  @(r0,r15),r5
  0407CE: 625C  extu.b r5,r2
  0407D0: 3260  cmp/eq r6,r2
  0407D2: 8B47  bf     0x40864
  0407D4: C434  mov.b  @(52,GBR),r0

  --- Literal Pool References ---
    0x040108: 0xFFFF9230  RAM [blend_ratio_workspace_A]
    0x04010C: 0xFFFF9234  RAM [blend_ratio_workspace_B]
    0x040110: 0xFFFF9164  RAM [blend_timing_ws_A]
    0x040114: 0xFFFF9168  RAM [blend_timing_ws_B]
    0x040118: 0xFFFF91F9  RAM [blend_state_flag]
    0x04011C: 0x0002999C
    0x040120: 0xFFFF7F3C  RAM [blend_output_scratch]
    0x040124: 0x000D2B18  [TimBlend_RatioFloor]
    0x040128: 0x000D2B1C  [TimBlend_RatioCeiling]
    0x0400D8: 0x000BE960
    0x04012C: 0xFFFF7F0C  RAM [timing_blend_gbr]
    0x040130: 0xFFFF6624  RAM [rpm_current]
    0x040134: 0xFFFF63F8  RAM [iat_current]
    0x040138: 0xFFFF90A8  RAM [blend_app_scratch]
    0x04013C: 0xFFFF679C  RAM [gear_current]
    0x040140: 0x00022CF4
    0x040144: 0xFFFF7BE2  RAM [idle_mode_flag]
    0x040148: 0x000D2B14  [TimBlend_RPMLimit]
    0x04014C: 0x000D2B10  [TimBlend_MinRatio]
    0x040150: 0x000D29D4  [MapSwitch_BlendAppCal]
    0x040154: 0xFFFF8075  RAM [si_drive_mode]
    0x040158: 0xFFFF804C  RAM [timing_base_select]
    0x04015C: 0xFFFF7F60  RAM [map_ratio]
    0x0403B4: 0x000ADB88
    0x040190: 0xF5C6FC0C
    0x040354: 0xFFFF7F60  RAM [map_ratio]
    0x040358: 0x000AE31C
    0x04035C: 0x000BE8E4  [table_desc_2d_typed]
    0x040360: 0x000AE354
    0x040364: 0x000AE338
    0x040368: 0x000AE370
    0x04036C: 0x000BE960
    0x040370: 0x000D2B08  [TimBlend_CorrThreshold]
    0x040378: 0x000BEA40
    0x040380: 0x000D2B0C  [TimBlend_HalfRatio]
    0x040384: 0x000BE608
    0x04038C: 0xFFFF8075  RAM [si_drive_mode]
    0x040390: 0x000BE554
    0x040394: 0x000D2AE8  [TimBlend_LookupInputThreshold]
    0x040398: 0x00022F92
    0x04039C: 0xFFFF7F60  RAM [map_ratio]
    0x0403A0: 0xFFFF6350  RAM [ect_current]
    0x0403A4: 0xFFFF65C0  RAM [throttle_position]
    0x0403A8: 0x00021016
    0x0403AC: 0x000ADB60
    0x0403B0: 0x000ADB4C
    0x0403B8: 0x000ADB74
    0x0403BC: 0x000BE830  [table_desc_1d_float]
    0x0403C0: 0xFFFF7F2C  RAM [unknown]
    0x040530: 0x2FC62FD6
    0x0404E4: 0xC038D663  (float: -2.88809)
    0x0405D8: 0xE0D0FE87
    0x04058C: 0x6260E014
    0x0403FC: 0xFFFF6350  RAM [ect_current]
    0x040400: 0xFFFF90BE  RAM [timing_ws_scratch]
    0x040404: 0xFFFF6254  RAM [engine_state]
    0x040408: 0x000ADBD8
    0x04040C: 0x000ADBC4
    0x040410: 0x000ADC00
    0x040414: 0x000ADBEC
    0x040418: 0x000BE830  [table_desc_1d_float]
    0x04041C: 0xFFFF7F68  RAM [unknown]
    0x04076C: 0x88018901
    0x040720: 0x1F096E03
    0x0407C8: 0x666CE014
    0x040458: 0xFFFF63F8  RAM [iat_current]
    0x04045C: 0xFFFF6364  RAM [unknown]
    0x040460: 0xFFFF6624  RAM [rpm_current]
    0x040464: 0x000AE38C
    0x040468: 0x000BE8E4  [table_desc_2d_typed]
    0x04046C: 0xFFFF7F70  RAM [unknown]
    0x040470: 0x000ADC14
    0x040474: 0x000BE830  [table_desc_1d_float]
    0x0404C4: 0x420B0009  (float: 34.75)
    0x040660: 0xFFFF7F8C  RAM [unknown]
    0x040664: 0xFFFF65C0  RAM [throttle_position]
    0x040668: 0xFFFF5BE2  RAM [unknown]
    0x04066C: 0xFFFF65C6  RAM [unknown]
    0x040670: 0xFFFF65C7  RAM [unknown]
    0x040674: 0xFFFF65C8  RAM [unknown]
    0x040678: 0xFFFF8A74  RAM [unknown]
    0x04067C: 0xFFFF895C  RAM [unknown]
    0x040680: 0xFFFF8E09  RAM [unknown]
    0x040684: 0xFFFF7F74  RAM [unknown]
    0x040688: 0x00022F92
    0x04068C: 0xFFFF7F82  RAM [throttle_timing_corr]
    0x040690: 0xFFFF6624  RAM [rpm_current]
    0x040694: 0xFFFF6630  RAM [unknown]
    0x040698: 0xFFFF65FC  RAM [unknown]
    0x04069C: 0xFFFF663C  RAM [unknown]
    0x0406A0: 0xFFFF67EC  RAM [engine_run_time]
    0x0406A4: 0x00021016
    0x0406A8: 0xFFFF6254  RAM [engine_state]
    0x0406AC: 0x0002F8EA
    0x0406B0: 0x00022CF4
    0x0406B4: 0xFFFF7FBC  RAM [unknown]
    0x0406B8: 0x000D2B20
    0x0406BC: 0xFFFF7FAC  RAM [unknown]
    0x0406C0: 0x000D2B2C  (ROM cal: 14)
    0x0406C4: 0x000D2B30  (ROM cal: 20)
    0x0406C8: 0x000D2B38  (ROM cal: 400)
    0x0406CC: 0x000D2B34  (ROM cal: 300)
    0x0406D0: 0x000AE158
    0x0406D4: 0x000BE830  [table_desc_1d_float]
    0x0406D8: 0x000D2B3C  (ROM cal: 195)
    0x0406DC: 0x000D2B44  (ROM cal: -199)
    0x0408DC: 0xFFFF7FAC  RAM [unknown]
    0x0408E0: 0x000D2B40  (ROM cal: -200)
    0x0408E4: 0x000BEAB0
    0x0408E8: 0x000ADC28
    0x0408EC: 0x000BE830  [table_desc_1d_float]
    0x0408F0: 0x000D2B28  (ROM cal: 2300)
    0x0408F4: 0x000D29B4

  --- Subroutine calls ---
    0x03FFF6 -> FUN_02999C @ 0x02999C
    0x040034 -> FUN_0BE960 @ 0x0BE960
    0x040076 -> FUN_022CF4 @ 0x022CF4
    0x040176 -> table_desc_2d_typed @ 0x0BE8E4
    0x040182 -> table_desc_2d_typed @ 0x0BE8E4
    0x04018E -> table_desc_2d_typed @ 0x0BE8E4
    0x04019A -> jsr @r14 (unresolved)
    0x0401AA -> FUN_0BE960 @ 0x0BE960
    0x0401C6 -> FUN_0BE960 @ 0x0BE960
    0x04023A -> FUN_0BEA40 @ 0x0BEA40
    0x040262 -> FUN_0BE608 @ 0x0BE608
    0x04027C -> FUN_0BEA40 @ 0x0BEA40
    0x0402C4 -> FUN_0BE554 @ 0x0BE554
    0x0402E8 -> FUN_022F92 @ 0x022F92
    0x0402F6 -> FUN_040314 @ 0x040314
    0x040322 -> FUN_021016 @ 0x021016
    0x040342 -> table_desc_1d_float @ 0x0BE830
    0x0403EE -> table_desc_1d_float @ 0x0BE830
    0x040434 -> table_desc_2d_typed @ 0x0BE8E4
    0x040440 -> table_desc_1d_float @ 0x0BE830
    0x0404C4 -> FUN_022F92 @ 0x022F92
    0x040518 -> FUN_040520 @ 0x040520
    0x040566 -> FUN_021016 @ 0x021016
    0x040570 -> FUN_02F8EA @ 0x02F8EA
    0x0405A2 -> FUN_022CF4 @ 0x022CF4
    0x04061C -> table_desc_1d_float @ 0x0BE830
    0x04070A -> FUN_0BEAB0 @ 0x0BEAB0
    0x040716 -> table_desc_1d_float @ 0x0BE830

==============================================================================
  task32_timing_blend_app  @  0x4004A
==============================================================================
  04004A: 2FC6  mov.l  r12,@-r15
  04004C: 2FD6  mov.l  r13,@-r15
  04004E: 2FE6  mov.l  r14,@-r15
  040050: 4F22  sts.l  PR,@-r15
  040052: FFCB  fmov.s fr12,@-r15
  040054: FFDB  fmov.s fr13,@-r15
  040056: FFEB  fmov.s fr14,@-r15
  040058: FFFB  fmov.s fr15,@-r15
  04005A: 4F13  .word  0x4F13
  04005C: D033  mov.l  @(0x4012C),r0  ; =0xFFFF7F0C (RAM) [timing_blend_gbr]
  04005E: 401E  ldc    r0,GBR
  040060: 7FF4  add    #-12,r15
  040062: D233  mov.l  @(0x40130),r2  ; =0xFFFF6624 (RAM) [rpm_current]
  040064: FC28  fmov.s @r2,fr12
  040066: D233  mov.l  @(0x40134),r2  ; =0xFFFF63F8 (RAM) [iat_current]
  040068: FE28  fmov.s @r2,fr14
  04006A: D233  mov.l  @(0x40138),r2  ; =0xFFFF90A8 (RAM) [blend_app_scratch]
  04006C: F828  fmov.s @r2,fr8
  04006E: FF8A  fmov.s fr8,@r15
  040070: D232  mov.l  @(0x4013C),r2  ; =0xFFFF679C (RAM) [gear_current]
  040072: FF28  fmov.s @r2,fr15
  040074: D232  mov.l  @(0x40140),r2  ; =0x00022CF4 (ROM)
  040076: 420B  jsr    @r2
  040078: 0009  nop
  04007A: 620C  extu.b r0,r2
  04007C: D531  mov.l  @(0x40144),r5  ; =0xFFFF7BE2 (RAM) [idle_mode_flag]
  04007E: 2228  tst r2,r2
  040080: 8F03  bf/s   0x4008A
  040082: 6D50  mov.b  @r5,r13
  040084: D230  mov.l  @(0x40148),r2  ; =0x000D2B14 [cal:TimBlend_RPMLimit]
  040086: A002  bra    0x4008E
  040088: F928  fmov.s @r2,fr9
  04008A: D230  mov.l  @(0x4014C),r2  ; =0x000D2B10 [cal:TimBlend_MinRatio]
  04008C: F928  fmov.s @r2,fr9
  04008E: C52A  mov.w  @(84,GBR),r0  ; GBR+0x54
  040090: D52F  mov.l  @(0x40150),r5  ; =0x000D29D4 [cal:MapSwitch_BlendAppCal]
  040092: 6251  mov.w  @r5,r2
  040094: 3026  cmp/hi r2,r0
  040096: 8963  bt     0x40160
  040098: D52E  mov.l  @(0x40154),r5  ; =0xFFFF8075 (RAM) [si_drive_mode]
  04009A: 6050  mov.b  @r5,r0
  04009C: C802  tst    #2,r0
  04009E: 322A  subc r2,r2
  0400A0: 7201  add    #1,r2
  0400A2: 602C  extu.b r2,r0
  0400A4: 8801  cmp/eq #1,r0
  0400A6: 8B5B  bf     0x40160
  0400A8: F9C5  fcmp/gt fr12,fr9
  0400AA: 8B59  bf     0x40160
  0400AC: 6050  mov.b  @r5,r0
  0400AE: C801  tst    #1,r0
  0400B0: 8956  bt     0x40160
  0400B2: D229  mov.l  @(0x40158),r2  ; =0xFFFF804C (RAM) [timing_base_select]
  0400B4: F828  fmov.s @r2,fr8
  0400B6: DC29  mov.l  @(0x4015C),r12  ; =0xFFFF7F60 (RAM) [map_ratio]
  0400B8: E0EC  mov    #-20,r0
  0400BA: A054  bra    0x40166
  0400BC: FC87  fmov.s fr8,@(r0,r12)
  0400BE: 0000  .word  0x0000
  0400C0: 000D  mov.w  @(r0,r0),r0
  0400C2: 2AEC  cmp/str r14,r10
  0400C4: 000D  mov.w  @(r0,r0),r0
  0400C6: 2AF4  mov.b  r15,@-r10
  0400C8: 000D  mov.w  @(r0,r0),r0
  0400CA: 2AF8  tst r15,r10
  0400CC: 000A  sts    MACH,r0
  0400CE: E300  mov    #0,r3
  0400D0: 000B  rts
  0400D2: E8E4  mov    #-28,r8
  0400D4: 000C  mov.b  @(r0,r0),r0
  0400D6: 1491  mov.l  r9,@(4,r4)
  0400D8: 000B  rts
  0400DA: E960  mov    #96,r9
  0400DC: 000B  rts
  0400DE: E970  mov    #112,r9
  0400E0: 000D  mov.w  @(r0,r0),r0
  0400E2: 2AFC  cmp/str r15,r10
  0400E4: FFFF  .word  0xFFFF  ; FPU
  0400E6: 3202  cmp/hs r0,r2
  0400E8: 000D  mov.w  @(r0,r0),r0
  0400EA: 29B2  mov.l  r11,@r9
  0400EC: 000D  mov.w  @(r0,r0),r0
  0400EE: 2B00  mov.b  r0,@r11
  0400F0: 000A  sts    MACH,r0
  0400F2: DBB0  mov.l  @(0x403B4),r11  ; =0x000ADB88 (ROM)
  0400F4: 000B  rts
  0400F6: E830  mov    #48,r8
  0400F8: 000D  mov.w  @(r0,r0),r0
  0400FA: 2B04  mov.b  r0,@-r11
  0400FC: 000A  sts    MACH,r0
  0400FE: DB24  mov.l  @(0x40190),r11  ; =0xF5C6FC0C
  040100: 000A  sts    MACH,r0
  040102: E2E4  mov    #-28,r2
  040104: 000D  mov.w  @(r0,r0),r0
  040106: 2AD8  tst r13,r10
  040108: FFFF  .word  0xFFFF  ; FPU
  04010A: 9230  mov.w  @(0x4016E),r2  ; =0xD47A (54394)
  04010C: FFFF  .word  0xFFFF  ; FPU
  04010E: 9234  mov.w  @(0x4017A),r2  ; =0xFF0C (65292)
  040110: FFFF  .word  0xFFFF  ; FPU
  040112: 9164  mov.w  @(0x401DE),r1  ; =0xF09D (61597)
  040114: FFFF  .word  0xFFFF  ; FPU
  040116: 9168  mov.w  @(0x401EA),r1  ; =0xFC87 (64647)
  040118: FFFF  .word  0xFFFF  ; FPU
  04011A: 91F9  mov.w  @(0x40310),r1  ; =0x000B (11)
  04011C: 0002  stc    SR,r0
  04011E: 999C  mov.w  @(0x4025A),r9  ; =0xD24A (53834)
  040120: FFFF  .word  0xFFFF  ; FPU
  040122: 7F3C  add    #60,r15
  040124: 000D  mov.w  @(r0,r0),r0
  040126: 2B18  tst r1,r11
  040128: 000D  mov.w  @(r0,r0),r0
  04012A: 2B1C  cmp/str r1,r11
  04012C: FFFF  .word  0xFFFF  ; FPU
  04012E: 7F0C  add    #12,r15
  040130: FFFF  .word  0xFFFF  ; FPU
  040132: 6624  mov.b  @r2+,r6
  040134: FFFF  .word  0xFFFF  ; FPU
  040136: 63F8  swap.b r15,r3
  040138: FFFF  .word  0xFFFF  ; FPU
  04013A: 90A8  mov.w  @(0x4028E),r0  ; =0xFCF9 (64761)
  04013C: FFFF  .word  0xFFFF  ; FPU
  04013E: 679C  extu.b r9,r7
  040140: 0002  stc    SR,r0
  040142: 2CF4  mov.b  r15,@-r12
  040144: FFFF  .word  0xFFFF  ; FPU
  040146: 7BE2  add    #-30,r11
  040148: 000D  mov.w  @(r0,r0),r0
  04014A: 2B14  mov.b  r1,@-r11
  04014C: 000D  mov.w  @(r0,r0),r0
  04014E: 2B10  mov.b  r1,@r11
  040150: 000D  mov.w  @(r0,r0),r0
  040152: 29D4  mov.b  r13,@-r9
  040154: FFFF  .word  0xFFFF  ; FPU
  040156: 8075  mov.b  r0,@(5,r7)
  040158: FFFF  .word  0xFFFF  ; FPU
  04015A: 804C  mov.b  r0,@(12,r4)
  04015C: FFFF  .word  0xFFFF  ; FPU
  04015E: 7F60  add    #96,r15
  040160: DC7C  mov.l  @(0x40354),r12  ; =0xFFFF7F60 (RAM) [map_ratio]
  040162: E0EC  mov    #-20,r0
  040164: FCF7  fmov.s fr15,@(r0,r12)
  040166: E0DC  mov    #-36,r0
  040168: F8C6  fmov.s @(r0,r12),fr8
  04016A: E004  mov    #4,r0
  04016C: FF87  fmov.s fr8,@(r0,r15)
  04016E: D47A  mov.l  @(0x40358),r4  ; =0x000AE31C (ROM)
  040170: DE7A  mov.l  @(0x4035C),r14  ; =0x000BE8E4 [func:table_desc_2d_typed]
  040172: F4EC  fmov   fr14,fr4
  040174: E0EC  mov    #-20,r0
  040176: 4E0B  jsr    @r14
  040178: F5C6  fmov.s @(r0,r12),fr5
  04017A: FF0C  fmov   fr0,fr15
  04017C: D478  mov.l  @(0x40360),r4  ; =0x000AE354 (ROM)
  04017E: F4EC  fmov   fr14,fr4
  040180: E0EC  mov    #-20,r0
  040182: 4E0B  jsr    @r14
  040184: F5C6  fmov.s @(r0,r12),fr5
  040186: FD0C  fmov   fr0,fr13
  040188: D476  mov.l  @(0x40364),r4  ; =0x000AE338 (ROM)
  04018A: F4EC  fmov   fr14,fr4
  04018C: E0EC  mov    #-20,r0
  04018E: 4E0B  jsr    @r14
  040190: F5C6  fmov.s @(r0,r12),fr5
  040192: FC0C  fmov   fr0,fr12
  040194: D474  mov.l  @(0x40368),r4  ; =0x000AE370 (ROM)
  040196: F4EC  fmov   fr14,fr4
  040198: E0EC  mov    #-20,r0
  04019A: 4E0B  jsr    @r14
  04019C: F5C6  fmov.s @(r0,r12),fr5
  04019E: E008  mov    #8,r0
  0401A0: FF07  fmov.s fr0,@(r0,r15)
  0401A2: FEFC  fmov   fr15,fr14
  0401A4: FFD1  fsub fr13,fr15
  0401A6: F4FC  fmov   fr15,fr4
  0401A8: D270  mov.l  @(0x4036C),r2  ; =0x000BE960 (ROM)
  0401AA: 420B  jsr    @r2
  0401AC: F58D  fldi0  fr5
  0401AE: F04D  fneg   fr0
  0401B0: E004  mov    #4,r0
  0401B2: F6F6  fmov.s @(r0,r15),fr6
  0401B4: FE6E  fmac   fr0,fr6,fr14
  0401B6: E0E0  mov    #-32,r0
  0401B8: FCE7  fmov.s fr14,@(r0,r12)
  0401BA: FECC  fmov   fr12,fr14
  0401BC: E008  mov    #8,r0
  0401BE: F8F6  fmov.s @(r0,r15),fr8
  0401C0: FC81  fsub fr8,fr12
  0401C2: F4CC  fmov   fr12,fr4
  0401C4: D269  mov.l  @(0x4036C),r2  ; =0x000BE960 (ROM)
  0401C6: 420B  jsr    @r2
  0401C8: F58D  fldi0  fr5
  0401CA: F04D  fneg   fr0
  0401CC: E004  mov    #4,r0
  0401CE: F6F6  fmov.s @(r0,r15),fr6
  0401D0: FE6E  fmac   fr0,fr6,fr14
  0401D2: E0E4  mov    #-28,r0
  0401D4: FCE7  fmov.s fr14,@(r0,r12)
  0401D6: F9F8  fmov.s @r15,fr9
  0401D8: F89C  fmov   fr9,fr8
  0401DA: F6C6  fmov.s @(r0,r12),fr6
  0401DC: F862  fmul fr6,fr8
  0401DE: F09D  fldi1  fr0
  0401E0: F091  fsub fr9,fr0
  0401E2: E0E0  mov    #-32,r0
  0401E4: F9C6  fmov.s @(r0,r12),fr9
  0401E6: F89E  fmac   fr0,fr9,fr8
  0401E8: E0F8  mov    #-8,r0
  0401EA: FC87  fmov.s fr8,@(r0,r12)
  0401EC: F0C6  fmov.s @(r0,r12),fr0
  0401EE: C456  mov.b  @(86,GBR),r0
  0401F0: 2008  tst r0,r0
  0401F2: 8B05  bf     0x40200
  0401F4: E0F8  mov    #-8,r0
  0401F6: F8C6  fmov.s @(r0,r12),fr8
  0401F8: E0FC  mov    #-4,r0
  0401FA: FC87  fmov.s fr8,@(r0,r12)
  0401FC: E001  mov    #1,r0
  0401FE: C056  mov.b  r0,@(86,GBR)
  040200: E0FC  mov    #-4,r0
  040202: F8C6  fmov.s @(r0,r12),fr8
  040204: E0F8  mov    #-8,r0
  040206: F9C6  fmov.s @(r0,r12),fr9
  040208: F891  fsub fr9,fr8
  04020A: D259  mov.l  @(0x40370),r2  ; =0x000D2B08 [cal:TimBlend_CorrThreshold]
  04020C: F928  fmov.s @r2,fr9
  04020E: F985  fcmp/gt fr8,fr9
  040210: 8908  bt     0x40224
  040212: E0FC  mov    #-4,r0
  040214: F0C6  fmov.s @(r0,r12),fr0
  040216: E0F8  mov    #-8,r0
  040218: F9C6  fmov.s @(r0,r12),fr9
  04021A: F090  fadd fr9,fr0
  04021C: C755  mova   @(0x40374),r0
  04021E: F908  fmov.s @r0,fr9
  040220: A00D  bra    0x4023E
  040222: F092  fmul fr9,fr0
  040224: 60DC  extu.b r13,r0
  040226: 8801  cmp/eq #1,r0
  040228: 8B09  bf     0x4023E
  04022A: D253  mov.l  @(0x40378),r2  ; =0x000BEA40 (ROM)
  04022C: E0F8  mov    #-8,r0
  04022E: F4C6  fmov.s @(r0,r12),fr4
  040230: C752  mova   @(0x4037C),r0
  040232: F708  fmov.s @r0,fr7
  040234: D652  mov.l  @(0x40380),r6  ; =0x000D2B0C [cal:TimBlend_HalfRatio]
  040236: F668  fmov.s @r6,fr6
  040238: E0E8  mov    #-24,r0
  04023A: 420B  jsr    @r2
  04023C: F5C6  fmov.s @(r0,r12),fr5
  04023E: E0E8  mov    #-24,r0
  040240: FC07  fmov.s fr0,@(r0,r12)
  040242: E0F8  mov    #-8,r0
  040244: F8C6  fmov.s @(r0,r12),fr8
  040246: E0FC  mov    #-4,r0
  040248: FC87  fmov.s fr8,@(r0,r12)
  04024A: E0B8  mov    #-72,r0
  04024C: FFC6  fmov.s @(r0,r12),fr15
  04024E: E0E8  mov    #-24,r0
  040250: FEC6  fmov.s @(r0,r12),fr14
  040252: E0B0  mov    #-80,r0
  040254: FEF5  fcmp/gt fr15,fr14
  040256: 8D0C  bt/s   0x40272
  040258: FCC6  fmov.s @(r0,r12),fr12
  04025A: D24A  mov.l  @(0x40384),r2  ; =0x000BE608 (ROM)
  04025C: F58D  fldi0  fr5
  04025E: F4CC  fmov   fr12,fr4
  040260: C749  mova   @(0x40388),r0
  040262: 420B  jsr    @r2
  040264: F608  fmov.s @r0,fr6
  040266: 620C  extu.b r0,r2
  040268: 2228  tst r2,r2
  04026A: 8902  bt     0x40272
  04026C: E0AC  mov    #-84,r0
  04026E: A009  bra    0x40284
  040270: FCE7  fmov.s fr14,@(r0,r12)
  040272: D241  mov.l  @(0x40378),r2  ; =0x000BEA40 (ROM)
  040274: C741  mova   @(0x4037C),r0
  040276: F708  fmov.s @r0,fr7
  040278: F5FC  fmov   fr15,fr5
  04027A: F6CC  fmov   fr12,fr6
  04027C: 420B  jsr    @r2
  04027E: F4EC  fmov   fr14,fr4
  040280: E0AC  mov    #-84,r0
  040282: FC07  fmov.s fr0,@(r0,r12)
  040284: 7F0C  add    #12,r15
  040286: 4F17  ldc.l  @r15+,GBR
  040288: FFF9  fmov.s @r15+,fr15
  04028A: FEF9  fmov.s @r15+,fr14
  04028C: FDF9  fmov.s @r15+,fr13
  04028E: FCF9  fmov.s @r15+,fr12
  040290: 4F26  lds.l  @r15+,PR
  040292: 6EF6  mov.l  @r15+,r14
  040294: 6DF6  mov.l  @r15+,r13
  040296: 000B  rts
  040298: 6CF6  mov.l  @r15+,r12
  04029A: 4F22  sts.l  PR,@-r15
  04029C: 7FFC  add    #-4,r15
  04029E: D63B  mov.l  @(0x4038C),r6  ; =0xFFFF8075 (RAM) [si_drive_mode]
  0402A0: 6060  mov.b  @r6,r0
  0402A2: C802  tst    #2,r0
  0402A4: 366A  subc r6,r6
  0402A6: 7601  add    #1,r6
  0402A8: 2F60  mov.b  r6,@r15
  0402AA: D12A  mov.l  @(0x40354),r1  ; =0xFFFF7F60 (RAM) [map_ratio]
  0402AC: 8413  mov.b  @(3,r1),r0
  0402AE: 2008  tst r0,r0
  0402B0: 8B05  bf     0x402BE
  0402B2: 606C  extu.b r6,r0
  0402B4: 8801  cmp/eq #1,r0
  0402B6: 8B02  bf     0x402BE
  0402B8: E200  mov    #0,r2
  0402BA: A007  bra    0x402CC
  0402BC: 2121  mov.w  r2,@r1
  0402BE: D234  mov.l  @(0x40390),r2  ; =0x000BE554 (ROM)
  0402C0: 6611  mov.w  @r1,r6
  0402C2: 646D  extu.w r6,r4
  0402C4: 420B  jsr    @r2
  0402C6: E501  mov    #1,r5
  0402C8: D122  mov.l  @(0x40354),r1  ; =0xFFFF7F60 (RAM) [map_ratio]
  0402CA: 2101  mov.w  r0,@r1
  0402CC: 60F0  mov.b  @r15,r0
  0402CE: 7F04  add    #4,r15
  0402D0: 4F26  lds.l  @r15+,PR
  0402D2: 000B  rts
  0402D4: 8013  mov.b  r0,@(3,r1)
  0402D6: E2FF  mov    #-1,r2
  0402D8: D51E  mov.l  @(0x40354),r5  ; =0xFFFF7F60 (RAM) [map_ratio]
  0402DA: 2521  mov.w  r2,@r5
  0402DC: D22D  mov.l  @(0x40394),r2  ; =0x000D2AE8 [cal:TimBlend_LookupInputThreshold]
  0402DE: F828  fmov.s @r2,fr8
  0402E0: E0C0  mov    #-64,r0
  0402E2: F587  fmov.s fr8,@(r0,r5)
  0402E4: 4F22  sts.l  PR,@-r15
  0402E6: D22C  mov.l  @(0x40398),r2  ; =0x00022F92 (ROM)
  0402E8: 420B  jsr    @r2
  0402EA: 0009  nop
  0402EC: 600C  extu.b r0,r0
  0402EE: 8801  cmp/eq #1,r0
  0402F0: 8B0D  bf     0x4030E
  0402F2: E000  mov    #0,r0
  0402F4: D629  mov.l  @(0x4039C),r6  ; =0xFFFF7F60 (RAM) [map_ratio]
  0402F6: B00D  bsr    0x40314
  0402F8: 8062  mov.b  r0,@(2,r6)
  0402FA: D628  mov.l  @(0x4039C),r6  ; =0xFFFF7F60 (RAM) [map_ratio]
  0402FC: E0CC  mov    #-52,r0
  0402FE: F866  fmov.s @(r0,r6),fr8
  040300: E0C8  mov    #-56,r0
  040302: F687  fmov.s fr8,@(r0,r6)
  040304: F89D  fldi1  fr8
  040306: E0DC  mov    #-36,r0
  040308: F687  fmov.s fr8,@(r0,r6)
  04030A: E000  mov    #0,r0
  04030C: 8065  mov.b  r0,@(5,r6)
  04030E: 4F26  lds.l  @r15+,PR
  040310: 000B  rts
  040312: 0009  nop
  040314: 2FE6  mov.l  r14,@-r15
  040316: 4F22  sts.l  PR,@-r15
  040318: FFEB  fmov.s fr14,@-r15
  04031A: D221  mov.l  @(0x403A0),r2  ; =0xFFFF6350 (RAM) [ect_current]
  04031C: FE28  fmov.s @r2,fr14
  04031E: D621  mov.l  @(0x403A4),r6  ; =0xFFFF65C0 (RAM) [throttle_position]
  040320: D221  mov.l  @(0x403A8),r2  ; =0x00021016 (ROM)
  040322: 420B  jsr    @r2
  040324: 6E60  mov.b  @r6,r14
  040326: 2EE8  tst r14,r14
  040328: 8F06  bf/s   0x40338
  04032A: 620C  extu.b r0,r2
  04032C: 2228  tst r2,r2
  04032E: D41F  mov.l  @(0x403AC),r4  ; =0x000ADB60 (ROM)
  040330: 8B06  bf     0x40340
  040332: D41F  mov.l  @(0x403B0),r4  ; =0x000ADB4C (ROM)
  040334: A004  bra    0x40340
  040336: 0009  nop
  040338: 2228  tst r2,r2
  04033A: D41E  mov.l  @(0x403B4),r4  ; =0x000ADB88 (ROM)
  04033C: 8B00  bf     0x40340
  04033E: D41E  mov.l  @(0x403B8),r4  ; =0x000ADB74 (ROM)
  040340: D21E  mov.l  @(0x403BC),r2  ; =0x000BE830 [func:table_desc_1d_float]
  040342: 420B  jsr    @r2
  040344: F4EC  fmov   fr14,fr4
  040346: D21E  mov.l  @(0x403C0),r2  ; =0xFFFF7F2C (RAM)
  040348: F20A  fmov.s fr0,@r2
  04034A: FEF9  fmov.s @r15+,fr14
  04034C: 4F26  lds.l  @r15+,PR
  04034E: 000B  rts
  040350: 6EF6  mov.l  @r15+,r14
  040352: 0000  .word  0x0000
  040354: FFFF  .word  0xFFFF  ; FPU
  040356: 7F60  add    #96,r15
  040358: 000A  sts    MACH,r0
  04035A: E31C  mov    #28,r3
  04035C: 000B  rts
  04035E: E8E4  mov    #-28,r8
  040360: 000A  sts    MACH,r0
  040362: E354  mov    #84,r3
  040364: 000A  sts    MACH,r0
  040366: E338  mov    #56,r3
  040368: 000A  sts    MACH,r0
  04036A: E370  mov    #112,r3
  04036C: 000B  rts
  04036E: E960  mov    #96,r9
  040370: 000D  mov.w  @(r0,r0),r0
  040372: 2B08  tst r0,r11
  040374: 3F00  cmp/eq r0,r15
  040376: 0000  .word  0x0000
  040378: 000B  rts
  04037A: EA40  mov    #64,r10
  04037C: 3EB4  div1 r11,r14
  04037E: 0000  .word  0x0000
  040380: 000D  mov.w  @(r0,r0),r0
  040382: 2B0C  cmp/str r0,r11
  040384: 000B  rts
  040386: E608  mov    #8,r6
  040388: 3B80  cmp/eq r8,r11
  04038A: 0000  .word  0x0000
  04038C: FFFF  .word  0xFFFF  ; FPU
  04038E: 8075  mov.b  r0,@(5,r7)
  040390: 000B  rts
  040392: E554  mov    #84,r5
  040394: 000D  mov.w  @(r0,r0),r0
  040396: 2AE8  tst r14,r10
  040398: 0002  stc    SR,r0
  04039A: 2F92  mov.l  r9,@r15
  04039C: FFFF  .word  0xFFFF  ; FPU
  04039E: 7F60  add    #96,r15
  0403A0: FFFF  .word  0xFFFF  ; FPU
  0403A2: 6350  mov.b  @r5,r3
  0403A4: FFFF  .word  0xFFFF  ; FPU
  0403A6: 65C0  mov.b  @r12,r5
  0403A8: 0002  stc    SR,r0
  0403AA: 1016  mov.l  r1,@(24,r0)
  0403AC: 000A  sts    MACH,r0
  0403AE: DB60  mov.l  @(0x40530),r11  ; =0x2FC62FD6
  0403B0: 000A  sts    MACH,r0
  0403B2: DB4C  mov.l  @(0x404E4),r11  ; =0xC038D663 (-2.88809)
  0403B4: 000A  sts    MACH,r0
  0403B6: DB88  mov.l  @(0x405D8),r11  ; =0xE0D0FE87
  0403B8: 000A  sts    MACH,r0
  0403BA: DB74  mov.l  @(0x4058C),r11  ; =0x6260E014
  0403BC: 000B  rts
  0403BE: E830  mov    #48,r8
  0403C0: FFFF  .word  0xFFFF  ; FPU
  0403C2: 7F2C  add    #44,r15
  0403C4: 4F22  sts.l  PR,@-r15
  0403C6: D20D  mov.l  @(0x403FC),r2  ; =0xFFFF6350 (RAM) [ect_current]
  0403C8: F428  fmov.s @r2,fr4
  0403CA: D60D  mov.l  @(0x40400),r6  ; =0xFFFF90BE (RAM) [timing_ws_scratch]
  0403CC: 6660  mov.b  @r6,r6
  0403CE: D20D  mov.l  @(0x40404),r2  ; =0xFFFF6254 (RAM) [engine_state]
  0403D0: 6520  mov.b  @r2,r5
  0403D2: 2668  tst r6,r6
  0403D4: 8F06  bf/s   0x403E4
  0403D6: 605C  extu.b r5,r0
  0403D8: 8801  cmp/eq #1,r0
  0403DA: D40B  mov.l  @(0x40408),r4  ; =0x000ADBD8 (ROM)
  0403DC: 8B06  bf     0x403EC
  0403DE: D40B  mov.l  @(0x4040C),r4  ; =0x000ADBC4 (ROM)
  0403E0: A004  bra    0x403EC
  0403E2: 0009  nop
  0403E4: 8801  cmp/eq #1,r0
  0403E6: D40A  mov.l  @(0x40410),r4  ; =0x000ADC00 (ROM)
  0403E8: 8B00  bf     0x403EC
  0403EA: D40A  mov.l  @(0x40414),r4  ; =0x000ADBEC (ROM)
  0403EC: D20A  mov.l  @(0x40418),r2  ; =0x000BE830 [func:table_desc_1d_float]
  0403EE: 420B  jsr    @r2
  0403F0: 0009  nop
  0403F2: D20A  mov.l  @(0x4041C),r2  ; =0xFFFF7F68 (RAM)
  0403F4: 4F26  lds.l  @r15+,PR
  0403F6: 000B  rts
  0403F8: F20A  fmov.s fr0,@r2
  0403FA: 0000  .word  0x0000
  0403FC: FFFF  .word  0xFFFF  ; FPU
  0403FE: 6350  mov.b  @r5,r3
  040400: FFFF  .word  0xFFFF  ; FPU
  040402: 90BE  mov.w  @(0x40582),r0  ; =0xD63B (54843)
  040404: FFFF  .word  0xFFFF  ; FPU
  040406: 6254  mov.b  @r5+,r2
  040408: 000A  sts    MACH,r0
  04040A: DBD8  mov.l  @(0x4076C),r11  ; =0x88018901
  04040C: 000A  sts    MACH,r0
  04040E: DBC4  mov.l  @(0x40720),r11  ; =0x1F096E03
  040410: 000A  sts    MACH,r0
  040412: DC00  mov.l  @(0x40414),r12  ; =0x000ADBEC (ROM)
  040414: 000A  sts    MACH,r0
  040416: DBEC  mov.l  @(0x407C8),r11  ; =0x666CE014
  040418: 000B  rts
  04041A: E830  mov    #48,r8
  04041C: FFFF  .word  0xFFFF  ; FPU
  04041E: 7F68  add    #104,r15
  040420: 4F22  sts.l  PR,@-r15
  040422: FFEB  fmov.s fr14,@-r15
  040424: D20C  mov.l  @(0x40458),r2  ; =0xFFFF63F8 (RAM) [iat_current]
  040426: F528  fmov.s @r2,fr5
  040428: D20C  mov.l  @(0x4045C),r2  ; =0xFFFF6364 (RAM)
  04042A: FE28  fmov.s @r2,fr14
  04042C: D20C  mov.l  @(0x40460),r2  ; =0xFFFF6624 (RAM) [rpm_current]
  04042E: F428  fmov.s @r2,fr4
  040430: D40C  mov.l  @(0x40464),r4  ; =0x000AE38C (ROM)
  040432: D20D  mov.l  @(0x40468),r2  ; =0x000BE8E4 [func:table_desc_2d_typed]
  040434: 420B  jsr    @r2
  040436: 0009  nop
  040438: D60C  mov.l  @(0x4046C),r6  ; =0xFFFF7F70 (RAM)
  04043A: F60A  fmov.s fr0,@r6
  04043C: D40C  mov.l  @(0x40470),r4  ; =0x000ADC14 (ROM)
  04043E: D20D  mov.l  @(0x40474),r2  ; =0x000BE830 [func:table_desc_1d_float]
  040440: 420B  jsr    @r2
  040442: F4EC  fmov   fr14,fr4
  040444: D609  mov.l  @(0x4046C),r6  ; =0xFFFF7F70 (RAM)
  040446: F868  fmov.s @r6,fr8
  040448: F082  fmul fr8,fr0
  04044A: E0FC  mov    #-4,r0
  04044C: F607  fmov.s fr0,@(r0,r6)
  04044E: FEF9  fmov.s @r15+,fr14
  040450: 4F26  lds.l  @r15+,PR
  040452: 000B  rts
  040454: 0009  nop
  040456: 0000  .word  0x0000
  040458: FFFF  .word  0xFFFF  ; FPU
  04045A: 63F8  swap.b r15,r3
  04045C: FFFF  .word  0xFFFF  ; FPU
  04045E: 6364  mov.b  @r6+,r3
  040460: FFFF  .word  0xFFFF  ; FPU
  040462: 6624  mov.b  @r2+,r6
  040464: 000A  sts    MACH,r0
  040466: E38C  mov    #-116,r3
  040468: 000B  rts
  04046A: E8E4  mov    #-28,r8
  04046C: FFFF  .word  0xFFFF  ; FPU
  04046E: 7F70  add    #112,r15
  040470: 000A  sts    MACH,r0
  040472: DC14  mov.l  @(0x404C4),r12  ; =0x420B0009 (34.75)
  040474: 000B  rts
  040476: E830  mov    #48,r8
  040478: 4F13  .word  0x4F13
  04047A: D079  mov.l  @(0x40660),r0  ; =0xFFFF7F8C (RAM)
  04047C: 401E  ldc    r0,GBR
  04047E: D679  mov.l  @(0x40664),r6  ; =0xFFFF65C0 (RAM) [throttle_position]
  040480: 6060  mov.b  @r6,r0
  040482: C01D  mov.b  r0,@(29,GBR)
  040484: D678  mov.l  @(0x40668),r6  ; =0xFFFF5BE2 (RAM)
  040486: 6060  mov.b  @r6,r0
  040488: C01E  mov.b  r0,@(30,GBR)
  04048A: D678  mov.l  @(0x4066C),r6  ; =0xFFFF65C6 (RAM)
  04048C: 6060  mov.b  @r6,r0
  04048E: C01F  mov.b  r0,@(31,GBR)
  040490: D677  mov.l  @(0x40670),r6  ; =0xFFFF65C7 (RAM)
  040492: 6060  mov.b  @r6,r0
  040494: C020  mov.b  r0,@(32,GBR)
  040496: D677  mov.l  @(0x40674),r6  ; =0xFFFF65C8 (RAM)
  040498: 6060  mov.b  @r6,r0
  04049A: C021  mov.b  r0,@(33,GBR)
  04049C: D676  mov.l  @(0x40678),r6  ; =0xFFFF8A74 (RAM)
  04049E: 6060  mov.b  @r6,r0
  0404A0: C022  mov.b  r0,@(34,GBR)
  0404A2: D276  mov.l  @(0x4067C),r2  ; =0xFFFF895C (RAM)
  0404A4: F828  fmov.s @r2,fr8
  0404A6: D26E  mov.l  @(0x40660),r2  ; =0xFFFF7F8C (RAM)
  0404A8: F28A  fmov.s fr8,@r2
  0404AA: D675  mov.l  @(0x40680),r6  ; =0xFFFF8E09 (RAM)
  0404AC: 6060  mov.b  @r6,r0
  0404AE: C01C  mov.b  r0,@(28,GBR)
  0404B0: E001  mov    #1,r0
  0404B2: C01A  mov.b  r0,@(26,GBR)
  0404B4: C018  mov.b  r0,@(24,GBR)
  0404B6: 000B  rts
  0404B8: 4F17  ldc.l  @r15+,GBR
  0404BA: 4F22  sts.l  PR,@-r15
  0404BC: 4F13  .word  0x4F13
  0404BE: D071  mov.l  @(0x40684),r0  ; =0xFFFF7F74 (RAM)
  0404C0: 401E  ldc    r0,GBR
  0404C2: D271  mov.l  @(0x40688),r2  ; =0x00022F92 (ROM)
  0404C4: 420B  jsr    @r2
  0404C6: 0009  nop
  0404C8: 600C  extu.b r0,r0
  0404CA: 8801  cmp/eq #1,r0
  0404CC: 8B1F  bf     0x4050E
  0404CE: D665  mov.l  @(0x40664),r6  ; =0xFFFF65C0 (RAM) [throttle_position]
  0404D0: 6060  mov.b  @r6,r0
  0404D2: C035  mov.b  r0,@(53,GBR)
  0404D4: D664  mov.l  @(0x40668),r6  ; =0xFFFF5BE2 (RAM)
  0404D6: 6060  mov.b  @r6,r0
  0404D8: C036  mov.b  r0,@(54,GBR)
  0404DA: D664  mov.l  @(0x4066C),r6  ; =0xFFFF65C6 (RAM)
  0404DC: 6060  mov.b  @r6,r0
  0404DE: C037  mov.b  r0,@(55,GBR)
  0404E0: D663  mov.l  @(0x40670),r6  ; =0xFFFF65C7 (RAM)
  0404E2: 6060  mov.b  @r6,r0
  0404E4: C038  mov.b  r0,@(56,GBR)
  0404E6: D663  mov.l  @(0x40674),r6  ; =0xFFFF65C8 (RAM)
  0404E8: 6060  mov.b  @r6,r0
  0404EA: C039  mov.b  r0,@(57,GBR)
  0404EC: D662  mov.l  @(0x40678),r6  ; =0xFFFF8A74 (RAM)
  0404EE: 6060  mov.b  @r6,r0
  0404F0: C03A  mov.b  r0,@(58,GBR)
  0404F2: D262  mov.l  @(0x4067C),r2  ; =0xFFFF895C (RAM)
  0404F4: F828  fmov.s @r2,fr8
  0404F6: D25A  mov.l  @(0x40660),r2  ; =0xFFFF7F8C (RAM)
  0404F8: F28A  fmov.s fr8,@r2
  0404FA: D661  mov.l  @(0x40680),r6  ; =0xFFFF8E09 (RAM)
  0404FC: 6060  mov.b  @r6,r0
  0404FE: C034  mov.b  r0,@(52,GBR)
  040500: E000  mov    #0,r0
  040502: C00C  mov.b  r0,@(12,GBR)
  040504: F88D  fldi0  fr8
  040506: D25F  mov.l  @(0x40684),r2  ; =0xFFFF7F74 (RAM)
  040508: F28A  fmov.s fr8,@r2
  04050A: C00D  mov.b  r0,@(13,GBR)
  04050C: C00E  mov.b  r0,@(14,GBR)
  04050E: 4F17  ldc.l  @r15+,GBR
  040510: 4F26  lds.l  @r15+,PR
  040512: 000B  rts
  040514: 0009  nop
  040516: 4F22  sts.l  PR,@-r15
  040518: B002  bsr    0x40520
  04051A: 0009  nop
  04051C: A004  bra    0x40528
  04051E: 4F26  lds.l  @r15+,PR
  040520: E200  mov    #0,r2
  040522: D65A  mov.l  @(0x4068C),r6  ; =0xFFFF7F82 (RAM) [throttle_timing_corr]
  040524: 000B  rts
  040526: 2620  mov.b  r2,@r6
  040528: 2F86  mov.l  r8,@-r15
  04052A: 2F96  mov.l  r9,@-r15
  04052C: 2FA6  mov.l  r10,@-r15
  04052E: 2FB6  mov.l  r11,@-r15
  040530: 2FC6  mov.l  r12,@-r15
  040532: 2FD6  mov.l  r13,@-r15
  040534: 2FE6  mov.l  r14,@-r15
  040536: 4F22  sts.l  PR,@-r15
  040538: FFCB  fmov.s fr12,@-r15
  04053A: FFDB  fmov.s fr13,@-r15
  04053C: FFEB  fmov.s fr14,@-r15
  04053E: FFFB  fmov.s fr15,@-r15
  040540: 4F13  .word  0x4F13
  040542: D050  mov.l  @(0x40684),r0  ; =0xFFFF7F74 (RAM)
  040544: 401E  ldc    r0,GBR
  040546: 7FB0  add    #-80,r15
  040548: D251  mov.l  @(0x40690),r2  ; =0xFFFF6624 (RAM) [rpm_current]
  04054A: FC28  fmov.s @r2,fr12
  04054C: D251  mov.l  @(0x40694),r2  ; =0xFFFF6630 (RAM)
  04054E: FE28  fmov.s @r2,fr14
  040550: D24A  mov.l  @(0x4067C),r2  ; =0xFFFF895C (RAM)
  040552: F828  fmov.s @r2,fr8
  040554: FF8A  fmov.s fr8,@r15
  040556: D250  mov.l  @(0x40698),r2  ; =0xFFFF65FC (RAM)
  040558: FF28  fmov.s @r2,fr15
  04055A: D250  mov.l  @(0x4069C),r2  ; =0xFFFF663C (RAM)
  04055C: F828  fmov.s @r2,fr8
  04055E: E004  mov    #4,r0
  040560: FF87  fmov.s fr8,@(r0,r15)
  040562: D64F  mov.l  @(0x406A0),r6  ; =0xFFFF67EC (RAM) [engine_run_time]
  040564: D24F  mov.l  @(0x406A4),r2  ; =0x00021016 (ROM)
  040566: 420B  jsr    @r2
  040568: 6C61  mov.w  @r6,r12
  04056A: 80F8  mov.b  r0,@(8,r15)
  04056C: D64E  mov.l  @(0x406A8),r6  ; =0xFFFF6254 (RAM) [engine_state]
  04056E: D24F  mov.l  @(0x406AC),r2  ; =0x0002F8EA (ROM)
  040570: 420B  jsr    @r2
  040572: 6B60  mov.b  @r6,r11
  040574: 80FC  mov.b  r0,@(12,r15)
  040576: D63B  mov.l  @(0x40664),r6  ; =0xFFFF65C0 (RAM) [throttle_position]
  040578: 6960  mov.b  @r6,r9
  04057A: D63B  mov.l  @(0x40668),r6  ; =0xFFFF5BE2 (RAM)
  04057C: 6A60  mov.b  @r6,r10
  04057E: D63B  mov.l  @(0x4066C),r6  ; =0xFFFF65C6 (RAM)
  040580: 6860  mov.b  @r6,r8
  040582: D63B  mov.l  @(0x40670),r6  ; =0xFFFF65C7 (RAM)
  040584: 6260  mov.b  @r6,r2
  040586: E010  mov    #16,r0
  040588: 0F24  mov.b  r2,@(r0,r15)
  04058A: D63A  mov.l  @(0x40674),r6  ; =0xFFFF65C8 (RAM)
  04058C: 6260  mov.b  @r6,r2
  04058E: E014  mov    #20,r0
  040590: 0F24  mov.b  r2,@(r0,r15)
  040592: D639  mov.l  @(0x40678),r6  ; =0xFFFF8A74 (RAM)
  040594: 6260  mov.b  @r6,r2
  040596: E018  mov    #24,r0
  040598: 0F24  mov.b  r2,@(r0,r15)
  04059A: D639  mov.l  @(0x40680),r6  ; =0xFFFF8E09 (RAM)
  04059C: 6260  mov.b  @r6,r2
  04059E: E01C  mov    #28,r0
  0405A0: D543  mov.l  @(0x406B0),r5  ; =0x00022CF4 (ROM)
  0405A2: 450B  jsr    @r5
  0405A4: 0F24  mov.b  r2,@(r0,r15)
  0405A6: 6503  mov    r0,r5
  0405A8: E020  mov    #32,r0
  0405AA: 0F54  mov.b  r5,@(r0,r15)
  0405AC: D241  mov.l  @(0x406B4),r2  ; =0xFFFF7FBC (RAM)
  0405AE: FD28  fmov.s @r2,fr13
  0405B0: 84FC  mov.b  @(12,r15),r0
  0405B2: 2008  tst r0,r0
  0405B4: 8B07  bf     0x405C6
  0405B6: F6F8  fmov.s @r15,fr6
  0405B8: D23F  mov.l  @(0x406B8),r2  ; =0x000D2B20 (ROM)
  0405BA: F928  fmov.s @r2,fr9
  0405BC: F690  fadd fr9,fr6
  0405BE: F6C5  fcmp/gt fr12,fr6
  0405C0: 8901  bt     0x405C6
  0405C2: E001  mov    #1,r0
  0405C4: C00C  mov.b  r0,@(12,GBR)
  0405C6: FEC1  fsub fr12,fr14
  0405C8: DE3C  mov.l  @(0x406BC),r14  ; =0xFFFF7FAC (RAM)
  0405CA: E0CC  mov    #-52,r0
  0405CC: FEE7  fmov.s fr14,@(r0,r14)
  0405CE: F8CC  fmov   fr12,fr8
  0405D0: F6F8  fmov.s @r15,fr6
  0405D2: F861  fsub fr6,fr8
  0405D4: F98C  fmov   fr8,fr9
  0405D6: F84D  fneg   fr8
  0405D8: E0D0  mov    #-48,r0
  0405DA: FE87  fmov.s fr8,@(r0,r14)
  0405DC: D238  mov.l  @(0x406C0),r2  ; =0x000D2B2C (ROM)
  0405DE: F828  fmov.s @r2,fr8
  0405E0: F8F5  fcmp/gt fr15,fr8
  0405E2: 8B02  bf     0x405EA
  0405E4: E001  mov    #1,r0
  0405E6: A006  bra    0x405F6
  0405E8: C030  mov.b  r0,@(48,GBR)
  0405EA: D236  mov.l  @(0x406C4),r2  ; =0x000D2B30 (ROM)
  0405EC: F828  fmov.s @r2,fr8
  0405EE: F8F5  fcmp/gt fr15,fr8
  0405F0: 8901  bt     0x405F6
  0405F2: E000  mov    #0,r0
  0405F4: C030  mov.b  r0,@(48,GBR)
  0405F6: D234  mov.l  @(0x406C8),r2  ; =0x000D2B38 (ROM)
  0405F8: F828  fmov.s @r2,fr8
  0405FA: FC85  fcmp/gt fr8,fr12
  0405FC: 8B02  bf     0x40604
  0405FE: E001  mov    #1,r0
  040600: A006  bra    0x40610
  040602: C031  mov.b  r0,@(49,GBR)
  040604: D231  mov.l  @(0x406CC),r2  ; =0x000D2B34 (ROM)
  040606: F828  fmov.s @r2,fr8
  040608: FC85  fcmp/gt fr8,fr12
  04060A: 8901  bt     0x40610
  04060C: E000  mov    #0,r0
  04060E: C031  mov.b  r0,@(49,GBR)
  040610: DE2A  mov.l  @(0x406BC),r14  ; =0xFFFF7FAC (RAM)
  040612: E0D8  mov    #-40,r0
  040614: FE97  fmov.s fr9,@(r0,r14)
  040616: D42E  mov.l  @(0x406D0),r4  ; =0x000AE158 (ROM)
  040618: D12E  mov.l  @(0x406D4),r1  ; =0x000BE830 [func:table_desc_1d_float]
  04061A: E004  mov    #4,r0
  04061C: 410B  jsr    @r1
  04061E: F4F6  fmov.s @(r0,r15),fr4
  040620: E0DC  mov    #-36,r0
  040622: FE07  fmov.s fr0,@(r0,r14)
  040624: E0D8  mov    #-40,r0
  040626: F9E6  fmov.s @(r0,r14),fr9
  040628: E0DC  mov    #-36,r0
  04062A: F8E6  fmov.s @(r0,r14),fr8
  04062C: F895  fcmp/gt fr9,fr8
  04062E: 8B02  bf     0x40636
  040630: E001  mov    #1,r0
  040632: A00B  bra    0x4064C
  040634: C032  mov.b  r0,@(50,GBR)
  040636: E0DC  mov    #-36,r0
  040638: F8E6  fmov.s @(r0,r14),fr8
  04063A: D227  mov.l  @(0x406D8),r2  ; =0x000D2B3C (ROM)
  04063C: F928  fmov.s @r2,fr9
  04063E: F890  fadd fr9,fr8
  040640: E0D8  mov    #-40,r0
  040642: F9E6  fmov.s @(r0,r14),fr9
  040644: F895  fcmp/gt fr9,fr8
  040646: 8901  bt     0x4064C
  040648: E000  mov    #0,r0
  04064A: C032  mov.b  r0,@(50,GBR)
  04064C: D21B  mov.l  @(0x406BC),r2  ; =0xFFFF7FAC (RAM)
  04064E: E0D8  mov    #-40,r0
  040650: F926  fmov.s @(r0,r2),fr9
  040652: D222  mov.l  @(0x406DC),r2  ; =0x000D2B44 (ROM)
  040654: F828  fmov.s @r2,fr8
  040656: F985  fcmp/gt fr8,fr9
  040658: 8B42  bf     0x406E0
  04065A: E001  mov    #1,r0
  04065C: A049  bra    0x406F2
  04065E: C033  mov.b  r0,@(51,GBR)
  040660: FFFF  .word  0xFFFF  ; FPU
  040662: 7F8C  add    #-116,r15
  040664: FFFF  .word  0xFFFF  ; FPU
  040666: 65C0  mov.b  @r12,r5
  040668: FFFF  .word  0xFFFF  ; FPU
  04066A: 5BE2  mov.l  @(8,r14),r11
  04066C: FFFF  .word  0xFFFF  ; FPU
  04066E: 65C6  mov.l  @r12+,r5
  040670: FFFF  .word  0xFFFF  ; FPU
  040672: 65C7  not    r12,r5
  040674: FFFF  .word  0xFFFF  ; FPU
  040676: 65C8  swap.b r12,r5
  040678: FFFF  .word  0xFFFF  ; FPU
  04067A: 8A74  .word  0x8A74
  04067C: FFFF  .word  0xFFFF  ; FPU
  04067E: 895C  bt     0x4073A
  040680: FFFF  .word  0xFFFF  ; FPU
  040682: 8E09  .word  0x8E09
  040684: FFFF  .word  0xFFFF  ; FPU
  040686: 7F74  add    #116,r15
  040688: 0002  stc    SR,r0
  04068A: 2F92  mov.l  r9,@r15
  04068C: FFFF  .word  0xFFFF  ; FPU
  04068E: 7F82  add    #-126,r15
  040690: FFFF  .word  0xFFFF  ; FPU
  040692: 6624  mov.b  @r2+,r6
  040694: FFFF  .word  0xFFFF  ; FPU
  040696: 6630  mov.b  @r3,r6
  040698: FFFF  .word  0xFFFF  ; FPU
  04069A: 65FC  extu.b r15,r5
  04069C: FFFF  .word  0xFFFF  ; FPU
  04069E: 663C  extu.b r3,r6
  0406A0: FFFF  .word  0xFFFF  ; FPU
  0406A2: 67EC  extu.b r14,r7
  0406A4: 0002  stc    SR,r0
  0406A6: 1016  mov.l  r1,@(24,r0)
  0406A8: FFFF  .word  0xFFFF  ; FPU
  0406AA: 6254  mov.b  @r5+,r2
  0406AC: 0002  stc    SR,r0
  0406AE: F8EA  fmov.s fr14,@r8
  0406B0: 0002  stc    SR,r0
  0406B2: 2CF4  mov.b  r15,@-r12
  0406B4: FFFF  .word  0xFFFF  ; FPU
  0406B6: 7FBC  add    #-68,r15
  0406B8: 000D  mov.w  @(r0,r0),r0
  0406BA: 2B20  mov.b  r2,@r11
  0406BC: FFFF  .word  0xFFFF  ; FPU
  0406BE: 7FAC  add    #-84,r15
  0406C0: 000D  mov.w  @(r0,r0),r0
  0406C2: 2B2C  cmp/str r2,r11
  0406C4: 000D  mov.w  @(r0,r0),r0
  0406C6: 2B30  mov.b  r3,@r11
  0406C8: 000D  mov.w  @(r0,r0),r0
  0406CA: 2B38  tst r3,r11
  0406CC: 000D  mov.w  @(r0,r0),r0
  0406CE: 2B34  mov.b  r3,@-r11
  0406D0: 000A  sts    MACH,r0
  0406D2: E158  mov    #88,r1
  0406D4: 000B  rts
  0406D6: E830  mov    #48,r8
  0406D8: 000D  mov.w  @(r0,r0),r0
  0406DA: 2B3C  cmp/str r3,r11
  0406DC: 000D  mov.w  @(r0,r0),r0
  0406DE: 2B44  mov.b  r4,@-r11
  0406E0: D27E  mov.l  @(0x408DC),r2  ; =0xFFFF7FAC (RAM)
  0406E2: E0D8  mov    #-40,r0
  0406E4: F926  fmov.s @(r0,r2),fr9
  0406E6: D27E  mov.l  @(0x408E0),r2  ; =0x000D2B40 (ROM)
  0406E8: F828  fmov.s @r2,fr8
  0406EA: F985  fcmp/gt fr8,fr9
  0406EC: 8901  bt     0x406F2
  0406EE: E000  mov    #0,r0
  0406F0: C033  mov.b  r0,@(51,GBR)
  0406F2: C432  mov.b  @(50,GBR),r0
  0406F4: 8801  cmp/eq #1,r0
  0406F6: 8903  bt     0x40700
  0406F8: C433  mov.b  @(51,GBR),r0
  0406FA: 8801  cmp/eq #1,r0
  0406FC: 8F01  bf/s   0x40702
  0406FE: ED00  mov    #0,r13
  040700: ED01  mov    #1,r13
  040702: D278  mov.l  @(0x408E4),r2  ; =0x000BEAB0 (ROM)
  040704: F4F8  fmov.s @r15,fr4
  040706: DE75  mov.l  @(0x408DC),r14  ; =0xFFFF7FAC (RAM)
  040708: E0E0  mov    #-32,r0
  04070A: 420B  jsr    @r2
  04070C: F5E6  fmov.s @(r0,r14),fr5
  04070E: E0E4  mov    #-28,r0
  040710: FE07  fmov.s fr0,@(r0,r14)
  040712: D475  mov.l  @(0x408E8),r4  ; =0x000ADC28 (ROM)
  040714: D175  mov.l  @(0x408EC),r1  ; =0x000BE830 [func:table_desc_1d_float]
  040716: 410B  jsr    @r1
  040718: F4DC  fmov   fr13,fr4
  04071A: E0F4  mov    #-12,r0
  04071C: FE07  fmov.s fr0,@(r0,r14)
  04071E: C40D  mov.b  @(13,GBR),r0
  040720: 1F09  mov.l  r0,@(36,r15)
  040722: 6E03  mov    r0,r14
  040724: C431  mov.b  @(49,GBR),r0
  040726: 1F0A  mov.l  r0,@(40,r15)
  040728: 600C  extu.b r0,r0
  04072A: 8801  cmp/eq #1,r0
  04072C: 8901  bt     0x40732
  04072E: A0AA  bra    0x40886
  040730: 0009  nop
  040732: D26F  mov.l  @(0x408F0),r2  ; =0x000D2B28 (ROM)
  040734: F828  fmov.s @r2,fr8
  040736: FC85  fcmp/gt fr8,fr12
  040738: 8B01  bf     0x4073E
  04073A: A0A4  bra    0x40886
  04073C: 0009  nop
  04073E: D26D  mov.l  @(0x408F4),r2  ; =0x000D29B4 (ROM)
  040740: 6621  mov.w  @r2,r6
  040742: 646D  extu.w r6,r4
  040744: 62CD  extu.w r12,r2
  040746: 3247  cmp/gt r4,r2
  040748: 8901  bt     0x4074E
  04074A: A09C  bra    0x40886
  04074C: 0009  nop
  04074E: 60BC  extu.b r11,r0
  040750: 8801  cmp/eq #1,r0
  040752: 8901  bt     0x40758
  040754: A097  bra    0x40886
  040756: 0009  nop
  040758: C40C  mov.b  @(12,GBR),r0
  04075A: 1F0B  mov.l  r0,@(44,r15)
  04075C: 600C  extu.b r0,r0
  04075E: 8801  cmp/eq #1,r0
  040760: 8901  bt     0x40766
  040762: A090  bra    0x40886
  040764: 0009  nop
  040766: C430  mov.b  @(48,GBR),r0
  040768: 1F0C  mov.l  r0,@(48,r15)
  04076A: 600C  extu.b r0,r0
  04076C: 8801  cmp/eq #1,r0
  04076E: 8901  bt     0x40774
  040770: A089  bra    0x40886
  040772: 0009  nop
  040774: 84F8  mov.b  @(8,r15),r0
  040776: F6F8  fmov.s @r15,fr6
  040778: F6C5  fcmp/gt fr12,fr6
  04077A: 8F01  bf/s   0x40780
  04077C: 640C  extu.b r0,r4
  04077E: EE01  mov    #1,r14
  040780: E020  mov    #32,r0
  040782: 05FC  mov.b  @(r0,r15),r5
  040784: 2558  tst r5,r5
  040786: 8B05  bf     0x40794
  040788: C435  mov.b  @(53,GBR),r0
  04078A: 660C  extu.b r0,r6
  04078C: 629C  extu.b r9,r2
  04078E: 3260  cmp/eq r6,r2
  040790: 8F68  bf/s   0x40864
  040792: 1F0D  mov.l  r0,@(52,r15)
  040794: C436  mov.b  @(54,GBR),r0
  040796: 660C  extu.b r0,r6
  040798: 62AC  extu.b r10,r2
  04079A: 3260  cmp/eq r6,r2
  04079C: 8F62  bf/s   0x40864
  04079E: 1F0E  mov.l  r0,@(56,r15)
  0407A0: C437  mov.b  @(55,GBR),r0
  0407A2: 660C  extu.b r0,r6
  0407A4: 628C  extu.b r8,r2
  0407A6: 3260  cmp/eq r6,r2
  0407A8: 8F5C  bf/s   0x40864
  0407AA: 1F0F  mov.l  r0,@(60,r15)
  0407AC: C438  mov.b  @(56,GBR),r0
  0407AE: 6603  mov    r0,r6
  0407B0: E040  mov    #64,r0
  0407B2: 0F66  mov.l  r6,@(r0,r15)
  0407B4: 666C  extu.b r6,r6
  0407B6: E010  mov    #16,r0
  0407B8: 07FC  mov.b  @(r0,r15),r7
  0407BA: 627C  extu.b r7,r2
  0407BC: 3260  cmp/eq r6,r2
  0407BE: 8B51  bf     0x40864
  0407C0: C439  mov.b  @(57,GBR),r0
  0407C2: 6603  mov    r0,r6
  0407C4: E044  mov    #68,r0
  0407C6: 0F66  mov.l  r6,@(r0,r15)
  0407C8: 666C  extu.b r6,r6
  0407CA: E014  mov    #20,r0
  0407CC: 05FC  mov.b  @(r0,r15),r5
  0407CE: 625C  extu.b r5,r2
  0407D0: 3260  cmp/eq r6,r2
  0407D2: 8B47  bf     0x40864
  0407D4: C434  mov.b  @(52,GBR),r0
  0407D6: 6603  mov    r0,r6
  0407D8: E048  mov    #72,r0
  0407DA: 0F66  mov.l  r6,@(r0,r15)
  0407DC: 666C  extu.b r6,r6
  0407DE: E01C  mov    #28,r0
  0407E0: 05FC  mov.b  @(r0,r15),r5
  0407E2: 625C  extu.b r5,r2
  0407E4: 3260  cmp/eq r6,r2
  0407E6: 8B3D  bf     0x40864
  0407E8: C43A  mov.b  @(58,GBR),r0
  0407EA: 6603  mov    r0,r6
  0407EC: E04C  mov    #76,r0
  0407EE: 0F66  mov.l  r6,@(r0,r15)
  0407F0: 666C  extu.b r6,r6
  0407F2: E018  mov    #24,r0
  0407F4: 05FC  mov.b  @(r0,r15),r5
  0407F6: 625C  extu.b r5,r2
  0407F8: 3260  cmp/eq r6,r2
  0407FA: 8B33  bf     0x40864
  0407FC: D237  mov.l  @(0x408DC),r2  ; =0xFFFF7FAC (RAM)
  0407FE: E0E4  mov    #-28,r0
  040800: F926  fmov.s @(r0,r2),fr9
  040802: D23D  mov.l  @(0x408F8),r2  ; =0x000D2B48 (ROM)
  040804: F828  fmov.s @r2,fr8
  040806: F895  fcmp/gt fr9,fr8
  040808: 8B2C  bf     0x40864
  04080A: 60D3  mov    r13,r0
  04080C: 8801  cmp/eq #1,r0
  04080E: 8B13  bf     0x40838
  040810: 6EEC  extu.b r14,r14
  040812: 2EE8  tst r14,r14
  040814: 8B26  bf     0x40864
  040816: 6043  mov    r4,r0
  040818: 8802  cmp/eq #2,r0
  04081A: D438  mov.l  @(0x408FC),r4  ; =0x000AE3A8 (ROM)
  04081C: 8B00  bf     0x40820
  04081E: D438  mov.l  @(0x40900),r4  ; =0x000AE3C4 (ROM)
  040820: D238  mov.l  @(0x40904),r2  ; =0x000BE8E4 [func:table_desc_2d_typed]
  040822: F56C  fmov   fr6,fr5
  040824: DD2D  mov.l  @(0x408DC),r13  ; =0xFFFF7FAC (RAM)
  040826: E0D0  mov    #-48,r0
  040828: 420B  jsr    @r2
  04082A: F4D6  fmov.s @(r0,r13),fr4
  04082C: E0E8  mov    #-24,r0
  04082E: FD07  fmov.s fr0,@(r0,r13)
  040830: F8D6  fmov.s @(r0,r13),fr8
  040832: E0C8  mov    #-56,r0
  040834: A02B  bra    0x4088E
  040836: FD87  fmov.s fr8,@(r0,r13)
  040838: 6043  mov    r4,r0
  04083A: 8802  cmp/eq #2,r0
  04083C: D432  mov.l  @(0x40908),r4  ; =0x000AE3E0 (ROM)
  04083E: 8B00  bf     0x40842
  040840: D432  mov.l  @(0x4090C),r4  ; =0x000AE3FC (ROM)
  040842: D230  mov.l  @(0x40904),r2  ; =0x000BE8E4 [func:table_desc_2d_typed]
  040844: E004  mov    #4,r0
  040846: F5F6  fmov.s @(r0,r15),fr5
  040848: DE24  mov.l  @(0x408DC),r14  ; =0xFFFF7FAC (RAM)

  --- Literal Pool References ---
    0x04012C: 0xFFFF7F0C  RAM [timing_blend_gbr]
    0x040130: 0xFFFF6624  RAM [rpm_current]
    0x040134: 0xFFFF63F8  RAM [iat_current]
    0x040138: 0xFFFF90A8  RAM [blend_app_scratch]
    0x04013C: 0xFFFF679C  RAM [gear_current]
    0x040140: 0x00022CF4
    0x040144: 0xFFFF7BE2  RAM [idle_mode_flag]
    0x040148: 0x000D2B14  [TimBlend_RPMLimit]
    0x04014C: 0x000D2B10  [TimBlend_MinRatio]
    0x040150: 0x000D29D4  [MapSwitch_BlendAppCal]
    0x040154: 0xFFFF8075  RAM [si_drive_mode]
    0x040158: 0xFFFF804C  RAM [timing_base_select]
    0x04015C: 0xFFFF7F60  RAM [map_ratio]
    0x0403B4: 0x000ADB88
    0x040190: 0xF5C6FC0C
    0x040354: 0xFFFF7F60  RAM [map_ratio]
    0x040358: 0x000AE31C
    0x04035C: 0x000BE8E4  [table_desc_2d_typed]
    0x040360: 0x000AE354
    0x040364: 0x000AE338
    0x040368: 0x000AE370
    0x04036C: 0x000BE960
    0x040370: 0x000D2B08  [TimBlend_CorrThreshold]
    0x040378: 0x000BEA40
    0x040380: 0x000D2B0C  [TimBlend_HalfRatio]
    0x040384: 0x000BE608
    0x04038C: 0xFFFF8075  RAM [si_drive_mode]
    0x040390: 0x000BE554
    0x040394: 0x000D2AE8  [TimBlend_LookupInputThreshold]
    0x040398: 0x00022F92
    0x04039C: 0xFFFF7F60  RAM [map_ratio]
    0x0403A0: 0xFFFF6350  RAM [ect_current]
    0x0403A4: 0xFFFF65C0  RAM [throttle_position]
    0x0403A8: 0x00021016
    0x0403AC: 0x000ADB60
    0x0403B0: 0x000ADB4C
    0x0403B8: 0x000ADB74
    0x0403BC: 0x000BE830  [table_desc_1d_float]
    0x0403C0: 0xFFFF7F2C  RAM [unknown]
    0x040530: 0x2FC62FD6
    0x0404E4: 0xC038D663  (float: -2.88809)
    0x0405D8: 0xE0D0FE87
    0x04058C: 0x6260E014
    0x0403FC: 0xFFFF6350  RAM [ect_current]
    0x040400: 0xFFFF90BE  RAM [timing_ws_scratch]
    0x040404: 0xFFFF6254  RAM [engine_state]
    0x040408: 0x000ADBD8
    0x04040C: 0x000ADBC4
    0x040410: 0x000ADC00
    0x040414: 0x000ADBEC
    0x040418: 0x000BE830  [table_desc_1d_float]
    0x04041C: 0xFFFF7F68  RAM [unknown]
    0x04076C: 0x88018901
    0x040720: 0x1F096E03
    0x0407C8: 0x666CE014
    0x040458: 0xFFFF63F8  RAM [iat_current]
    0x04045C: 0xFFFF6364  RAM [unknown]
    0x040460: 0xFFFF6624  RAM [rpm_current]
    0x040464: 0x000AE38C
    0x040468: 0x000BE8E4  [table_desc_2d_typed]
    0x04046C: 0xFFFF7F70  RAM [unknown]
    0x040470: 0x000ADC14
    0x040474: 0x000BE830  [table_desc_1d_float]
    0x0404C4: 0x420B0009  (float: 34.75)
    0x040660: 0xFFFF7F8C  RAM [unknown]
    0x040664: 0xFFFF65C0  RAM [throttle_position]
    0x040668: 0xFFFF5BE2  RAM [unknown]
    0x04066C: 0xFFFF65C6  RAM [unknown]
    0x040670: 0xFFFF65C7  RAM [unknown]
    0x040674: 0xFFFF65C8  RAM [unknown]
    0x040678: 0xFFFF8A74  RAM [unknown]
    0x04067C: 0xFFFF895C  RAM [unknown]
    0x040680: 0xFFFF8E09  RAM [unknown]
    0x040684: 0xFFFF7F74  RAM [unknown]
    0x040688: 0x00022F92
    0x04068C: 0xFFFF7F82  RAM [throttle_timing_corr]
    0x040690: 0xFFFF6624  RAM [rpm_current]
    0x040694: 0xFFFF6630  RAM [unknown]
    0x040698: 0xFFFF65FC  RAM [unknown]
    0x04069C: 0xFFFF663C  RAM [unknown]
    0x0406A0: 0xFFFF67EC  RAM [engine_run_time]
    0x0406A4: 0x00021016
    0x0406A8: 0xFFFF6254  RAM [engine_state]
    0x0406AC: 0x0002F8EA
    0x0406B0: 0x00022CF4
    0x0406B4: 0xFFFF7FBC  RAM [unknown]
    0x0406B8: 0x000D2B20
    0x0406BC: 0xFFFF7FAC  RAM [unknown]
    0x0406C0: 0x000D2B2C  (ROM cal: 14)
    0x0406C4: 0x000D2B30  (ROM cal: 20)
    0x0406C8: 0x000D2B38  (ROM cal: 400)
    0x0406CC: 0x000D2B34  (ROM cal: 300)
    0x0406D0: 0x000AE158
    0x0406D4: 0x000BE830  [table_desc_1d_float]
    0x0406D8: 0x000D2B3C  (ROM cal: 195)
    0x0406DC: 0x000D2B44  (ROM cal: -199)
    0x0408DC: 0xFFFF7FAC  RAM [unknown]
    0x0408E0: 0x000D2B40  (ROM cal: -200)
    0x0408E4: 0x000BEAB0
    0x0408E8: 0x000ADC28
    0x0408EC: 0x000BE830  [table_desc_1d_float]
    0x0408F0: 0x000D2B28  (ROM cal: 2300)
    0x0408F4: 0x000D29B4
    0x0408F8: 0x000D2B48  (ROM cal: 2000)
    0x0408FC: 0x000AE3A8
    0x040900: 0x000AE3C4
    0x040904: 0x000BE8E4  [table_desc_2d_typed]
    0x040908: 0x000AE3E0
    0x04090C: 0x000AE3FC

  --- Subroutine calls ---
    0x040076 -> FUN_022CF4 @ 0x022CF4
    0x040176 -> table_desc_2d_typed @ 0x0BE8E4
    0x040182 -> table_desc_2d_typed @ 0x0BE8E4
    0x04018E -> table_desc_2d_typed @ 0x0BE8E4
    0x04019A -> jsr @r14 (unresolved)
    0x0401AA -> FUN_0BE960 @ 0x0BE960
    0x0401C6 -> FUN_0BE960 @ 0x0BE960
    0x04023A -> FUN_0BEA40 @ 0x0BEA40
    0x040262 -> FUN_0BE608 @ 0x0BE608
    0x04027C -> FUN_0BEA40 @ 0x0BEA40
    0x0402C4 -> FUN_0BE554 @ 0x0BE554
    0x0402E8 -> FUN_022F92 @ 0x022F92
    0x0402F6 -> FUN_040314 @ 0x040314
    0x040322 -> FUN_021016 @ 0x021016
    0x040342 -> table_desc_1d_float @ 0x0BE830
    0x0403EE -> table_desc_1d_float @ 0x0BE830
    0x040434 -> table_desc_2d_typed @ 0x0BE8E4
    0x040440 -> table_desc_1d_float @ 0x0BE830
    0x0404C4 -> FUN_022F92 @ 0x022F92
    0x040518 -> FUN_040520 @ 0x040520
    0x040566 -> FUN_021016 @ 0x021016
    0x040570 -> FUN_02F8EA @ 0x02F8EA
    0x0405A2 -> FUN_022CF4 @ 0x022CF4
    0x04061C -> table_desc_1d_float @ 0x0BE830
    0x04070A -> FUN_0BEAB0 @ 0x0BEAB0
    0x040716 -> table_desc_1d_float @ 0x0BE830
    0x040828 -> table_desc_2d_typed @ 0x0BE8E4

==============================================================================
  task33_timing_ws_init  @  0x40918
==============================================================================
  040918: 4F22  sts.l  PR,@-r15
  04091A: B0BF  bsr    0x40A9C
  04091C: 0009  nop
  04091E: B0EA  bsr    0x40AF6
  040920: 0009  nop
  040922: B385  bsr    0x41030
  040924: 0009  nop
  040926: A3D5  bra    0x410D4
  040928: 4F26  lds.l  @r15+,PR
  04092A: 4F13  .word  0x4F13
  04092C: D093  mov.l  @(0x40B7C),r0  ; =0xFFFF7FD4 (RAM) [timing_ws_gbr]
  04092E: 401E  ldc    r0,GBR
  040930: D693  mov.l  @(0x40B80),r6  ; =0xFFFF65C0 (RAM) [throttle_position]
  040932: 6560  mov.b  @r6,r5
  040934: D693  mov.l  @(0x40B84),r6  ; =0xFFFF85D7 (RAM)
  040936: 6660  mov.b  @r6,r6
  040938: D493  mov.l  @(0x40B88),r4  ; =0xFFFF90BE (RAM) [timing_ws_scratch]
  04093A: 6440  mov.b  @r4,r4
  04093C: D193  mov.l  @(0x40B8C),r1  ; =0xFFFF8E7E (RAM) [timing_ws_state]
  04093E: 6110  mov.b  @r1,r1
  040940: E2FF  mov    #-1,r2
  040942: 6023  mov    r2,r0
  040944: C10A  mov.w  r0,@(20,GBR)  ; GBR+0x14
  040946: C10B  mov.w  r0,@(22,GBR)  ; GBR+0x16
  040948: C109  mov.w  r0,@(18,GBR)  ; GBR+0x12
  04094A: 6053  mov    r5,r0
  04094C: C01E  mov.b  r0,@(30,GBR)
  04094E: 6063  mov    r6,r0
  040950: C01F  mov.b  r0,@(31,GBR)
  040952: E001  mov    #1,r0
  040954: C01C  mov.b  r0,@(28,GBR)
  040956: 6043  mov    r4,r0
  040958: C027  mov.b  r0,@(39,GBR)
  04095A: 6023  mov    r2,r0
  04095C: C112  mov.w  r0,@(36,GBR)  ; GBR+0x24
  04095E: 6013  mov    r1,r0
  040960: C02B  mov.b  r0,@(43,GBR)
  040962: 6023  mov    r2,r0
  040964: C114  mov.w  r0,@(40,GBR)  ; GBR+0x28
  040966: F89D  fldi1  fr8
  040968: D284  mov.l  @(0x40B7C),r2  ; =0xFFFF7FD4 (RAM) [timing_ws_gbr]
  04096A: F28A  fmov.s fr8,@r2
  04096C: 000B  rts
  04096E: 4F17  ldc.l  @r15+,GBR
  040970: 4F22  sts.l  PR,@-r15
  040972: 4F13  .word  0x4F13
  040974: D086  mov.l  @(0x40B90),r0  ; =0xFFFF7FBC (RAM)
  040976: 401E  ldc    r0,GBR
  040978: D286  mov.l  @(0x40B94),r2  ; =0x00022F92 (ROM)
  04097A: 420B  jsr    @r2
  04097C: 0009  nop
  04097E: 600C  extu.b r0,r0
  040980: D681  mov.l  @(0x40B88),r6  ; =0xFFFF90BE (RAM) [timing_ws_scratch]
  040982: 6660  mov.b  @r6,r6
  040984: D581  mov.l  @(0x40B8C),r5  ; =0xFFFF8E7E (RAM) [timing_ws_state]
  040986: 8801  cmp/eq #1,r0
  040988: 8F16  bf/s   0x409B8
  04098A: 6450  mov.b  @r5,r4
  04098C: F88D  fldi0  fr8
  04098E: D280  mov.l  @(0x40B90),r2  ; =0xFFFF7FBC (RAM)
  040990: F28A  fmov.s fr8,@r2
  040992: E000  mov    #0,r0
  040994: C020  mov.b  r0,@(32,GBR)
  040996: C035  mov.b  r0,@(53,GBR)
  040998: C03A  mov.b  r0,@(58,GBR)
  04099A: C030  mov.b  r0,@(48,GBR)
  04099C: C114  mov.w  r0,@(40,GBR)  ; GBR+0x28
  04099E: 6063  mov    r6,r0
  0409A0: C03F  mov.b  r0,@(63,GBR)
  0409A2: E000  mov    #0,r0
  0409A4: C03E  mov.b  r0,@(62,GBR)
  0409A6: E2FF  mov    #-1,r2
  0409A8: 6023  mov    r2,r0
  0409AA: C11E  mov.w  r0,@(60,GBR)  ; GBR+0x3C
  0409AC: 6043  mov    r4,r0
  0409AE: C043  mov.b  r0,@(67,GBR)
  0409B0: E000  mov    #0,r0
  0409B2: C042  mov.b  r0,@(66,GBR)
  0409B4: 6023  mov    r2,r0
  0409B6: C120  mov.w  r0,@(64,GBR)  ; GBR+0x40
  0409B8: 4F17  ldc.l  @r15+,GBR
  0409BA: 4F26  lds.l  @r15+,PR
  0409BC: 000B  rts
  0409BE: 0009  nop
  0409C0: 2FA6  mov.l  r10,@-r15
  0409C2: 2FB6  mov.l  r11,@-r15
  0409C4: 2FC6  mov.l  r12,@-r15
  0409C6: 2FD6  mov.l  r13,@-r15
  0409C8: 2FE6  mov.l  r14,@-r15
  0409CA: 4F22  sts.l  PR,@-r15
  0409CC: 7FF8  add    #-8,r15
  0409CE: D672  mov.l  @(0x40B98),r6  ; =0xFFFF8970 (RAM)
  0409D0: 6E60  mov.b  @r6,r14
  0409D2: D66B  mov.l  @(0x40B80),r6  ; =0xFFFF65C0 (RAM) [throttle_position]
  0409D4: 6C60  mov.b  @r6,r12
  0409D6: D66B  mov.l  @(0x40B84),r6  ; =0xFFFF85D7 (RAM)
  0409D8: D270  mov.l  @(0x40B9C),r2  ; =0x0002F8EA (ROM)
  0409DA: 420B  jsr    @r2
  0409DC: 6B60  mov.b  @r6,r11
  0409DE: D670  mov.l  @(0x40BA0),r6  ; =0x00022CF4 (ROM)
  0409E0: 460B  jsr    @r6
  0409E2: 2F00  mov.b  r0,@r15
  0409E4: 80F4  mov.b  r0,@(4,r15)
  0409E6: DA6F  mov.l  @(0x40BA4),r10  ; =0xFFFF7FE6 (RAM)
  0409E8: 84AA  mov.b  @(10,r10),r0
  0409EA: 8804  cmp/eq #4,r0
  0409EC: 8D12  bt/s   0x40A14
  0409EE: 6DF0  mov.b  @r15,r13
  0409F0: 84AA  mov.b  @(10,r10),r0
  0409F2: 8807  cmp/eq #7,r0
  0409F4: 890E  bt     0x40A14
  0409F6: 84AA  mov.b  @(10,r10),r0
  0409F8: 8808  cmp/eq #8,r0
  0409FA: 890B  bt     0x40A14
  0409FC: 60EC  extu.b r14,r0
  0409FE: 8804  cmp/eq #4,r0
  040A00: 8903  bt     0x40A0A
  040A02: 8807  cmp/eq #7,r0
  040A04: 8901  bt     0x40A0A
  040A06: 8808  cmp/eq #8,r0
  040A08: 8B04  bf     0x40A14
  040A0A: E001  mov    #1,r0
  040A0C: 80A7  mov.b  r0,@(7,r10)
  040A0E: E200  mov    #0,r2
  040A10: A006  bra    0x40A20
  040A12: 2A21  mov.w  r2,@r10
  040A14: D264  mov.l  @(0x40BA8),r2  ; =0x000BE554 (ROM)
  040A16: 66A1  mov.w  @r10,r6
  040A18: 646D  extu.w r6,r4
  040A1A: 420B  jsr    @r2
  040A1C: E501  mov    #1,r5
  040A1E: 2A01  mov.w  r0,@r10
  040A20: 60E3  mov    r14,r0
  040A22: 80AA  mov.b  r0,@(10,r10)
  040A24: 84F4  mov.b  @(4,r15),r0
  040A26: 8801  cmp/eq #1,r0
  040A28: 8B03  bf     0x40A32
  040A2A: E000  mov    #0,r0
  040A2C: 80A8  mov.b  r0,@(8,r10)
  040A2E: A011  bra    0x40A54
  040A30: E0FF  mov    #-1,r0
  040A32: 2DD8  tst r13,r13
  040A34: 8B09  bf     0x40A4A
  040A36: 84AC  mov.b  @(12,r10),r0
  040A38: 2008  tst r0,r0
  040A3A: 8B06  bf     0x40A4A
  040A3C: 60CC  extu.b r12,r0
  040A3E: 8801  cmp/eq #1,r0
  040A40: 8B03  bf     0x40A4A
  040A42: E001  mov    #1,r0
  040A44: 80A8  mov.b  r0,@(8,r10)
  040A46: A005  bra    0x40A54
  040A48: E000  mov    #0,r0
  040A4A: D257  mov.l  @(0x40BA8),r2  ; =0x000BE554 (ROM)
  040A4C: 85A1  mov.w  @(2,r10),r0
  040A4E: 640D  extu.w r0,r4
  040A50: 420B  jsr    @r2
  040A52: E501  mov    #1,r5
  040A54: 81A1  mov.w  r0,@(2,r10)
  040A56: 60C3  mov    r12,r0
  040A58: 2DD8  tst r13,r13
  040A5A: 8F11  bf/s   0x40A80
  040A5C: 80AC  mov.b  r0,@(12,r10)
  040A5E: 84AD  mov.b  @(13,r10),r0
  040A60: 2008  tst r0,r0
  040A62: 8B06  bf     0x40A72
  040A64: 60BC  extu.b r11,r0
  040A66: 8801  cmp/eq #1,r0
  040A68: 8B03  bf     0x40A72
  040A6A: E001  mov    #1,r0
  040A6C: 80A9  mov.b  r0,@(9,r10)
  040A6E: A00A  bra    0x40A86
  040A70: E000  mov    #0,r0
  040A72: D24D  mov.l  @(0x40BA8),r2  ; =0x000BE554 (ROM)
  040A74: E501  mov    #1,r5
  040A76: 85A2  mov.w  @(4,r10),r0
  040A78: 420B  jsr    @r2
  040A7A: 640D  extu.w r0,r4
  040A7C: A003  bra    0x40A86
  040A7E: 0009  nop
  040A80: E000  mov    #0,r0
  040A82: 80A9  mov.b  r0,@(9,r10)
  040A84: E0FF  mov    #-1,r0
  040A86: 81A2  mov.w  r0,@(4,r10)
  040A88: 60B3  mov    r11,r0
  040A8A: 80AD  mov.b  r0,@(13,r10)
  040A8C: 7F08  add    #8,r15
  040A8E: 4F26  lds.l  @r15+,PR
  040A90: 6EF6  mov.l  @r15+,r14
  040A92: 6DF6  mov.l  @r15+,r13
  040A94: 6CF6  mov.l  @r15+,r12
  040A96: 6BF6  mov.l  @r15+,r11
  040A98: 000B  rts
  040A9A: 6AF6  mov.l  @r15+,r10
  040A9C: 4F22  sts.l  PR,@-r15
  040A9E: 7FFC  add    #-4,r15
  040AA0: D23F  mov.l  @(0x40BA0),r2  ; =0x00022CF4 (ROM)
  040AA2: 420B  jsr    @r2
  040AA4: 0009  nop
  040AA6: D23D  mov.l  @(0x40B9C),r2  ; =0x0002F8EA (ROM)
  040AA8: 420B  jsr    @r2
  040AAA: 2F00  mov.b  r0,@r15
  040AAC: 620C  extu.b r0,r2
  040AAE: D534  mov.l  @(0x40B80),r5  ; =0xFFFF65C0 (RAM) [throttle_position]
  040AB0: 2228  tst r2,r2
  040AB2: 8F1A  bf/s   0x40AEA
  040AB4: 6550  mov.b  @r5,r5
  040AB6: 66F0  mov.b  @r15,r6
  040AB8: 2668  tst r6,r6
  040ABA: 8B0B  bf     0x40AD4
  040ABC: D43B  mov.l  @(0x40BAC),r4  ; =0xFFFF7FE8 (RAM)
  040ABE: 8446  mov.b  @(6,r4),r0
  040AC0: 8801  cmp/eq #1,r0
  040AC2: 8B07  bf     0x40AD4
  040AC4: 6641  mov.w  @r4,r6
  040AC6: D43A  mov.l  @(0x40BB0),r4  ; =0x000D29C2 (ROM)
  040AC8: 6241  mov.w  @r4,r2
  040ACA: 3622  cmp/hs r2,r6
  040ACC: 8902  bt     0x40AD4
  040ACE: 605C  extu.b r5,r0
  040AD0: 8801  cmp/eq #1,r0
  040AD2: 8908  bt     0x40AE6
  040AD4: D435  mov.l  @(0x40BAC),r4  ; =0xFFFF7FE8 (RAM)
  040AD6: 8447  mov.b  @(7,r4),r0
  040AD8: 8801  cmp/eq #1,r0
  040ADA: 8B06  bf     0x40AEA
  040ADC: 8541  mov.w  @(2,r4),r0
  040ADE: D535  mov.l  @(0x40BB4),r5  ; =0x000D29C4 (ROM)
  040AE0: 6251  mov.w  @r5,r2
  040AE2: 3022  cmp/hs r2,r0
  040AE4: 8901  bt     0x40AEA
  040AE6: A001  bra    0x40AEC
  040AE8: E201  mov    #1,r2
  040AEA: E200  mov    #0,r2
  040AEC: D632  mov.l  @(0x40BB8),r6  ; =0xFFFF7FDC (RAM)
  040AEE: 7F04  add    #4,r15
  040AF0: 4F26  lds.l  @r15+,PR
  040AF2: 000B  rts
  040AF4: 2620  mov.b  r2,@r6
  040AF6: 2F86  mov.l  r8,@-r15
  040AF8: 2F96  mov.l  r9,@-r15
  040AFA: 2FA6  mov.l  r10,@-r15
  040AFC: 2FB6  mov.l  r11,@-r15
  040AFE: 2FC6  mov.l  r12,@-r15
  040B00: 2FD6  mov.l  r13,@-r15
  040B02: 2FE6  mov.l  r14,@-r15
  040B04: 4F22  sts.l  PR,@-r15
  040B06: FFCB  fmov.s fr12,@-r15
  040B08: FFDB  fmov.s fr13,@-r15
  040B0A: FFEB  fmov.s fr14,@-r15
  040B0C: FFFB  fmov.s fr15,@-r15
  040B0E: 4F13  .word  0x4F13
  040B10: D02A  mov.l  @(0x40BBC),r0  ; =0xFFFF7FB0 (RAM)
  040B12: 401E  ldc    r0,GBR
  040B14: 7FDC  add    #-36,r15
  040B16: D22A  mov.l  @(0x40BC0),r2  ; =0xFFFF6354 (RAM)
  040B18: FC28  fmov.s @r2,fr12
  040B1A: D22A  mov.l  @(0x40BC4),r2  ; =0xFFFF6624 (RAM) [rpm_current]
  040B1C: FE28  fmov.s @r2,fr14
  040B1E: D22A  mov.l  @(0x40BC8),r2  ; =0xFFFF6898 (RAM) [manifold_pressure]
  040B20: F928  fmov.s @r2,fr9
  040B22: FF9A  fmov.s fr9,@r15
  040B24: D629  mov.l  @(0x40BCC),r6  ; =0xFFFF67EC (RAM) [engine_run_time]
  040B26: 6E61  mov.w  @r6,r14
  040B28: D61B  mov.l  @(0x40B98),r6  ; =0xFFFF8970 (RAM)
  040B2A: 6D60  mov.b  @r6,r13
  040B2C: D616  mov.l  @(0x40B88),r6  ; =0xFFFF90BE (RAM) [timing_ws_scratch]
  040B2E: 6B60  mov.b  @r6,r11
  040B30: D616  mov.l  @(0x40B8C),r6  ; =0xFFFF8E7E (RAM) [timing_ws_state]
  040B32: 6A60  mov.b  @r6,r10
  040B34: D626  mov.l  @(0x40BD0),r6  ; =0xFFFF3158 (RAM)
  040B36: 6C60  mov.b  @r6,r12
  040B38: D226  mov.l  @(0x40BD4),r2  ; =0xFFFF6210 (RAM)
  040B3A: FD28  fmov.s @r2,fr13
  040B3C: D226  mov.l  @(0x40BD8),r2  ; =0x00029A64 (ROM)
  040B3E: 420B  jsr    @r2
  040B40: 0009  nop
  040B42: D226  mov.l  @(0x40BDC),r2  ; =0x000297D0 (ROM)
  040B44: 420B  jsr    @r2
  040B46: 0009  nop
  040B48: 80F4  mov.b  r0,@(4,r15)
  040B4A: D60E  mov.l  @(0x40B84),r6  ; =0xFFFF85D7 (RAM)
  040B4C: 6060  mov.b  @r6,r0
  040B4E: 80F8  mov.b  r0,@(8,r15)
  040B50: D223  mov.l  @(0x40BE0),r2  ; =0xFFFF65FC (RAM)
  040B52: FF28  fmov.s @r2,fr15
  040B54: D623  mov.l  @(0x40BE4),r6  ; =0x000D297C (ROM)
  040B56: 6060  mov.b  @r6,r0
  040B58: 67ED  extu.w r14,r7
  040B5A: 1F73  mov.l  r7,@(12,r15)
  040B5C: 6EBC  extu.b r11,r14
  040B5E: 69AC  extu.b r10,r9
  040B60: 885A  cmp/eq #90,r0
  040B62: 8F45  bf/s   0x40BF0
  040B64: 68DC  extu.b r13,r8
  040B66: 60CC  extu.b r12,r0
  040B68: 8801  cmp/eq #1,r0
  040B6A: 8B41  bf     0x40BF0
  040B6C: D41E  mov.l  @(0x40BE8),r4  ; =0x000ADC3C (ROM)
  040B6E: D11F  mov.l  @(0x40BEC),r1  ; =0x000BE830 [func:table_desc_1d_float]
  040B70: 1F14  mov.l  r1,@(16,r15)
  040B72: 410B  jsr    @r1
  040B74: F4EC  fmov   fr14,fr4
  040B76: A0F5  bra    0x40D64
  040B78: 0009  nop
  040B7A: 0000  .word  0x0000
  040B7C: FFFF  .word  0xFFFF  ; FPU
  040B7E: 7FD4  add    #-44,r15
  040B80: FFFF  .word  0xFFFF  ; FPU
  040B82: 65C0  mov.b  @r12,r5
  040B84: FFFF  .word  0xFFFF  ; FPU
  040B86: 85D7  mov.w  @(14,r13),r0
  040B88: FFFF  .word  0xFFFF  ; FPU
  040B8A: 90BE  mov.w  @(0x40D0A),r0  ; =0xF4EC (62700)
  040B8C: FFFF  .word  0xFFFF  ; FPU
  040B8E: 8E7E  .word  0x8E7E
  040B90: FFFF  .word  0xFFFF  ; FPU
  040B92: 7FBC  add    #-68,r15
  040B94: 0002  stc    SR,r0
  040B96: 2F92  mov.l  r9,@r15
  040B98: FFFF  .word  0xFFFF  ; FPU
  040B9A: 8970  bt     0x40C7E
  040B9C: 0002  stc    SR,r0
  040B9E: F8EA  fmov.s fr14,@r8
  040BA0: 0002  stc    SR,r0
  040BA2: 2CF4  mov.b  r15,@-r12
  040BA4: FFFF  .word  0xFFFF  ; FPU
  040BA6: 7FE6  add    #-26,r15
  040BA8: 000B  rts
  040BAA: E554  mov    #84,r5
  040BAC: FFFF  .word  0xFFFF  ; FPU
  040BAE: 7FE8  add    #-24,r15
  040BB0: 000D  mov.w  @(r0,r0),r0
  040BB2: 29C2  mov.l  r12,@r9
  040BB4: 000D  mov.w  @(r0,r0),r0
  040BB6: 29C4  mov.b  r12,@-r9
  040BB8: FFFF  .word  0xFFFF  ; FPU
  040BBA: 7FDC  add    #-36,r15
  040BBC: FFFF  .word  0xFFFF  ; FPU
  040BBE: 7FB0  add    #-80,r15
  040BC0: FFFF  .word  0xFFFF  ; FPU
  040BC2: 6354  mov.b  @r5+,r3
  040BC4: FFFF  .word  0xFFFF  ; FPU
  040BC6: 6624  mov.b  @r2+,r6
  040BC8: FFFF  .word  0xFFFF  ; FPU
  040BCA: 6898  swap.b r9,r8
  040BCC: FFFF  .word  0xFFFF  ; FPU
  040BCE: 67EC  extu.b r14,r7
  040BD0: FFFF  .word  0xFFFF  ; FPU
  040BD2: 3158  sub r5,r1
  040BD4: FFFF  .word  0xFFFF  ; FPU
  040BD6: 6210  mov.b  @r1,r2
  040BD8: 0002  stc    SR,r0
  040BDA: 9A64  mov.w  @(0x40CA6),r10  ; =0xD247 (53831)
  040BDC: 0002  stc    SR,r0
  040BDE: 97D0  mov.w  @(0x40D82),r7  ; =0x4D0B (19723)
  040BE0: FFFF  .word  0xFFFF  ; FPU
  040BE2: 65FC  extu.b r15,r5
  040BE4: 000D  mov.w  @(r0,r0),r0
  040BE6: 297C  cmp/str r7,r9
  040BE8: 000A  sts    MACH,r0
  040BEA: DC3C  mov.l  @(0x40CDC),r12  ; =0xD2391F24
  040BEC: 000B  rts
  040BEE: E830  mov    #48,r8
  040BF0: D672  mov.l  @(0x40DBC),r6  ; =0x000D29BC (ROM)
  040BF2: 6261  mov.w  @r6,r2
  040BF4: 662D  extu.w r2,r6
  040BF6: 3763  cmp/ge r6,r7
  040BF8: 8D5B  bt/s   0x40CB2
  040BFA: 60E3  mov    r14,r0
  040BFC: 8801  cmp/eq #1,r0
  040BFE: 8F2C  bf/s   0x40C5A
  040C00: 6093  mov    r9,r0
  040C02: 8801  cmp/eq #1,r0
  040C04: 8F15  bf/s   0x40C32
  040C06: 6083  mov    r8,r0
  040C08: 8804  cmp/eq #4,r0
  040C0A: 890B  bt     0x40C24
  040C0C: 6083  mov    r8,r0
  040C0E: 8807  cmp/eq #7,r0
  040C10: 8908  bt     0x40C24
  040C12: 8808  cmp/eq #8,r0
  040C14: 8906  bt     0x40C24
  040C16: D46A  mov.l  @(0x40DC0),r4  ; =0x000ADC64 (ROM)
  040C18: D26A  mov.l  @(0x40DC4),r2  ; =0x000BE830 [func:table_desc_1d_float]
  040C1A: 1F24  mov.l  r2,@(16,r15)
  040C1C: 420B  jsr    @r2
  040C1E: F4EC  fmov   fr14,fr4
  040C20: A0A0  bra    0x40D64
  040C22: 0009  nop
  040C24: D468  mov.l  @(0x40DC8),r4  ; =0x000ADC50 (ROM)
  040C26: D267  mov.l  @(0x40DC4),r2  ; =0x000BE830 [func:table_desc_1d_float]
  040C28: 1F24  mov.l  r2,@(16,r15)
  040C2A: 420B  jsr    @r2
  040C2C: F4EC  fmov   fr14,fr4
  040C2E: A099  bra    0x40D64
  040C30: 0009  nop
  040C32: 8804  cmp/eq #4,r0
  040C34: 890A  bt     0x40C4C
  040C36: 8807  cmp/eq #7,r0
  040C38: 8908  bt     0x40C4C
  040C3A: 8808  cmp/eq #8,r0
  040C3C: 8906  bt     0x40C4C
  040C3E: D463  mov.l  @(0x40DCC),r4  ; =0x000ADC8C (ROM)
  040C40: D260  mov.l  @(0x40DC4),r2  ; =0x000BE830 [func:table_desc_1d_float]
  040C42: 1F24  mov.l  r2,@(16,r15)
  040C44: 420B  jsr    @r2
  040C46: F4EC  fmov   fr14,fr4
  040C48: A08C  bra    0x40D64
  040C4A: 0009  nop
  040C4C: D460  mov.l  @(0x40DD0),r4  ; =0x000ADC78 (ROM)
  040C4E: D25D  mov.l  @(0x40DC4),r2  ; =0x000BE830 [func:table_desc_1d_float]
  040C50: 1F24  mov.l  r2,@(16,r15)
  040C52: 420B  jsr    @r2
  040C54: F4EC  fmov   fr14,fr4
  040C56: A085  bra    0x40D64
  040C58: 0009  nop
  040C5A: 8801  cmp/eq #1,r0
  040C5C: 8F15  bf/s   0x40C8A
  040C5E: 6083  mov    r8,r0
  040C60: 8804  cmp/eq #4,r0
  040C62: 890B  bt     0x40C7C
  040C64: 6083  mov    r8,r0
  040C66: 8807  cmp/eq #7,r0
  040C68: 8908  bt     0x40C7C
  040C6A: 8808  cmp/eq #8,r0
  040C6C: 8906  bt     0x40C7C
  040C6E: D459  mov.l  @(0x40DD4),r4  ; =0x000ADCB4 (ROM)
  040C70: D254  mov.l  @(0x40DC4),r2  ; =0x000BE830 [func:table_desc_1d_float]
  040C72: 1F24  mov.l  r2,@(16,r15)
  040C74: 420B  jsr    @r2
  040C76: F4EC  fmov   fr14,fr4
  040C78: A074  bra    0x40D64
  040C7A: 0009  nop
  040C7C: D456  mov.l  @(0x40DD8),r4  ; =0x000ADCA0 (ROM)
  040C7E: D251  mov.l  @(0x40DC4),r2  ; =0x000BE830 [func:table_desc_1d_float]
  040C80: 1F24  mov.l  r2,@(16,r15)
  040C82: 420B  jsr    @r2
  040C84: F4EC  fmov   fr14,fr4
  040C86: A06D  bra    0x40D64
  040C88: 0009  nop
  040C8A: 8804  cmp/eq #4,r0
  040C8C: 890A  bt     0x40CA4
  040C8E: 8807  cmp/eq #7,r0
  040C90: 8908  bt     0x40CA4
  040C92: 8808  cmp/eq #8,r0
  040C94: 8906  bt     0x40CA4
  040C96: D451  mov.l  @(0x40DDC),r4  ; =0x000ADCDC (ROM)
  040C98: D24A  mov.l  @(0x40DC4),r2  ; =0x000BE830 [func:table_desc_1d_float]
  040C9A: 1F24  mov.l  r2,@(16,r15)
  040C9C: 420B  jsr    @r2
  040C9E: F4EC  fmov   fr14,fr4
  040CA0: A060  bra    0x40D64
  040CA2: 0009  nop
  040CA4: D44E  mov.l  @(0x40DE0),r4  ; =0x000ADCC8 (ROM)
  040CA6: D247  mov.l  @(0x40DC4),r2  ; =0x000BE830 [func:table_desc_1d_float]
  040CA8: 1F24  mov.l  r2,@(16,r15)
  040CAA: 420B  jsr    @r2
  040CAC: F4EC  fmov   fr14,fr4
  040CAE: A059  bra    0x40D64
  040CB0: 0009  nop
  040CB2: 8801  cmp/eq #1,r0
  040CB4: 8F2C  bf/s   0x40D10
  040CB6: 6093  mov    r9,r0
  040CB8: 8801  cmp/eq #1,r0
  040CBA: 8F15  bf/s   0x40CE8
  040CBC: 6083  mov    r8,r0
  040CBE: 8804  cmp/eq #4,r0
  040CC0: 890B  bt     0x40CDA
  040CC2: 6083  mov    r8,r0
  040CC4: 8807  cmp/eq #7,r0
  040CC6: 8908  bt     0x40CDA
  040CC8: 8808  cmp/eq #8,r0
  040CCA: 8906  bt     0x40CDA
  040CCC: D445  mov.l  @(0x40DE4),r4  ; =0x000ADD04 (ROM)
  040CCE: D23D  mov.l  @(0x40DC4),r2  ; =0x000BE830 [func:table_desc_1d_float]
  040CD0: 1F24  mov.l  r2,@(16,r15)
  040CD2: 420B  jsr    @r2
  040CD4: F4EC  fmov   fr14,fr4
  040CD6: A045  bra    0x40D64
  040CD8: 0009  nop
  040CDA: D443  mov.l  @(0x40DE8),r4  ; =0x000ADCF0 (ROM)
  040CDC: D239  mov.l  @(0x40DC4),r2  ; =0x000BE830 [func:table_desc_1d_float]
  040CDE: 1F24  mov.l  r2,@(16,r15)
  040CE0: 420B  jsr    @r2
  040CE2: F4EC  fmov   fr14,fr4
  040CE4: A03E  bra    0x40D64
  040CE6: 0009  nop
  040CE8: 8804  cmp/eq #4,r0
  040CEA: 890A  bt     0x40D02
  040CEC: 8807  cmp/eq #7,r0
  040CEE: 8908  bt     0x40D02
  040CF0: 8808  cmp/eq #8,r0
  040CF2: 8906  bt     0x40D02
  040CF4: D43D  mov.l  @(0x40DEC),r4  ; =0x000ADD2C (ROM)
  040CF6: D233  mov.l  @(0x40DC4),r2  ; =0x000BE830 [func:table_desc_1d_float]
  040CF8: 1F24  mov.l  r2,@(16,r15)
  040CFA: 420B  jsr    @r2
  040CFC: F4EC  fmov   fr14,fr4
  040CFE: A031  bra    0x40D64
  040D00: 0009  nop
  040D02: D43B  mov.l  @(0x40DF0),r4  ; =0x000ADD18 (ROM)
  040D04: D22F  mov.l  @(0x40DC4),r2  ; =0x000BE830 [func:table_desc_1d_float]
  040D06: 1F24  mov.l  r2,@(16,r15)
  040D08: 420B  jsr    @r2
  040D0A: F4EC  fmov   fr14,fr4
  040D0C: A02A  bra    0x40D64
  040D0E: 0009  nop
  040D10: 8801  cmp/eq #1,r0
  040D12: 8F15  bf/s   0x40D40
  040D14: 6083  mov    r8,r0
  040D16: 8804  cmp/eq #4,r0
  040D18: 890B  bt     0x40D32
  040D1A: 6083  mov    r8,r0
  040D1C: 8807  cmp/eq #7,r0
  040D1E: 8908  bt     0x40D32
  040D20: 8808  cmp/eq #8,r0
  040D22: 8906  bt     0x40D32
  040D24: D433  mov.l  @(0x40DF4),r4  ; =0x000ADD54 (ROM)
  040D26: D227  mov.l  @(0x40DC4),r2  ; =0x000BE830 [func:table_desc_1d_float]
  040D28: 1F24  mov.l  r2,@(16,r15)
  040D2A: 420B  jsr    @r2
  040D2C: F4EC  fmov   fr14,fr4
  040D2E: A019  bra    0x40D64
  040D30: 0009  nop
  040D32: D431  mov.l  @(0x40DF8),r4  ; =0x000ADD40 (ROM)
  040D34: D223  mov.l  @(0x40DC4),r2  ; =0x000BE830 [func:table_desc_1d_float]
  040D36: 1F24  mov.l  r2,@(16,r15)
  040D38: 420B  jsr    @r2
  040D3A: F4EC  fmov   fr14,fr4
  040D3C: A012  bra    0x40D64
  040D3E: 0009  nop
  040D40: 8804  cmp/eq #4,r0
  040D42: 890A  bt     0x40D5A
  040D44: 8807  cmp/eq #7,r0
  040D46: 8908  bt     0x40D5A
  040D48: 8808  cmp/eq #8,r0
  040D4A: 8906  bt     0x40D5A
  040D4C: D42B  mov.l  @(0x40DFC),r4  ; =0x000ADD7C (ROM)
  040D4E: D21D  mov.l  @(0x40DC4),r2  ; =0x000BE830 [func:table_desc_1d_float]
  040D50: 1F24  mov.l  r2,@(16,r15)
  040D52: 420B  jsr    @r2
  040D54: F4EC  fmov   fr14,fr4
  040D56: A005  bra    0x40D64
  040D58: 0009  nop
  040D5A: D429  mov.l  @(0x40E00),r4  ; =0x000ADD68 (ROM)
  040D5C: D219  mov.l  @(0x40DC4),r2  ; =0x000BE830 [func:table_desc_1d_float]
  040D5E: 1F24  mov.l  r2,@(16,r15)
  040D60: 420B  jsr    @r2
  040D62: F4EC  fmov   fr14,fr4
  040D64: DD27  mov.l  @(0x40E04),r13  ; =0xFFFF7FFC (RAM)
  040D66: E0B8  mov    #-72,r0
  040D68: 2EE8  tst r14,r14
  040D6A: 8F07  bf/s   0x40D7C
  040D6C: FD07  fmov.s fr0,@(r0,r13)
  040D6E: C44B  mov.b  @(75,GBR),r0
  040D70: 8801  cmp/eq #1,r0
  040D72: 8B03  bf     0x40D7C
  040D74: E001  mov    #1,r0
  040D76: C04A  mov.b  r0,@(74,GBR)
  040D78: E000  mov    #0,r0
  040D7A: C124  mov.w  r0,@(72,GBR)  ; GBR+0x48
  040D7C: DD22  mov.l  @(0x40E08),r13  ; =0x000BE554 (ROM)
  040D7E: C524  mov.w  @(72,GBR),r0  ; GBR+0x48
  040D80: 640D  extu.w r0,r4
  040D82: 4D0B  jsr    @r13
  040D84: E501  mov    #1,r5
  040D86: C124  mov.w  r0,@(72,GBR)  ; GBR+0x48
  040D88: C44A  mov.b  @(74,GBR),r0
  040D8A: 8801  cmp/eq #1,r0
  040D8C: 8B06  bf     0x40D9C
  040D8E: C524  mov.w  @(72,GBR),r0  ; GBR+0x48
  040D90: D61E  mov.l  @(0x40E0C),r6  ; =0x000D29BE (ROM)
  040D92: 6261  mov.w  @r6,r2
  040D94: 3026  cmp/hi r2,r0
  040D96: 8901  bt     0x40D9C
  040D98: A001  bra    0x40D9E
  040D9A: EE01  mov    #1,r14
  040D9C: EE00  mov    #0,r14
  040D9E: 60B3  mov    r11,r0
  040DA0: C04B  mov.b  r0,@(75,GBR)
  040DA2: D606  mov.l  @(0x40DBC),r6  ; =0x000D29BC (ROM)
  040DA4: 6261  mov.w  @r6,r2
  040DA6: 662D  extu.w r2,r6
  040DA8: 57F3  mov.l  @(12,r15),r7
  040DAA: 3763  cmp/ge r6,r7
  040DAC: 8B30  bf     0x40E10
  040DAE: C51A  mov.w  @(52,GBR),r0  ; GBR+0x34
  040DB0: 640D  extu.w r0,r4
  040DB2: 4D0B  jsr    @r13
  040DB4: E501  mov    #1,r5
  040DB6: C11A  mov.w  r0,@(52,GBR)  ; GBR+0x34
  040DB8: A02C  bra    0x40E14
  040DBA: E001  mov    #1,r0
  040DBC: 000D  mov.w  @(r0,r0),r0
  040DBE: 29BC  cmp/str r11,r9
  040DC0: 000A  sts    MACH,r0
  040DC2: DC64  mov.l  @(0x40F54),r12  ; =0xE0CCFED7
  040DC4: 000B  rts
  040DC6: E830  mov    #48,r8
  040DC8: 000A  sts    MACH,r0
  040DCA: DC50  mov.l  @(0x40F0C),r12  ; =0xF5E6D65F
  040DCC: 000A  sts    MACH,r0
  040DCE: DC8C  mov.l  @(0x41000),r12  ; =0xE0D8F5E6
  040DD0: 000A  sts    MACH,r0
  040DD2: DC78  mov.l  @(0x40FB4),r12  ; =0xFE07F8E6
  040DD4: 000A  sts    MACH,r0
  040DD6: DCB4  mov.l  @(0x410A8),r12  ; =0x000D2BE4 (ROM)
  040DD8: 000A  sts    MACH,r0
  040DDA: DCA0  mov.l  @(0x4105C),r12  ; =0xD21CF928
  040DDC: 000A  sts    MACH,r0
  040DDE: DCDC  mov.l  @(0x41150),r12  ; =0xE018FF87
  040DE0: 000A  sts    MACH,r0
  040DE2: DCC8  mov.l  @(0x41104),r12  ; =0xFF87D288
  040DE4: 000A  sts    MACH,r0
  040DE6: DD04  mov.l  @(0x40DF8),r13  ; =0x000ADD40 (ROM)
  040DE8: 000A  sts    MACH,r0
  040DEA: DCF0  mov.l  @(0x411AC),r12  ; =0xF4CCE028
  040DEC: 000A  sts    MACH,r0
  040DEE: DD2C  mov.l  @(0x40EA0),r13  ; =0xA040FE07
  040DF0: 000A  sts    MACH,r0
  040DF2: DD18  mov.l  @(0x40E54),r13  ; =0xE501C526
  040DF4: 000A  sts    MACH,r0
  040DF6: DD54  mov.l  @(0x40F48),r13  ; =0xF4F8E0C8
  040DF8: 000A  sts    MACH,r0
  040DFA: DD40  mov.l  @(0x40EFC),r13  ; =0x8B0DD25C
  040DFC: 000A  sts    MACH,r0
  040DFE: DD7C  mov.l  @(0x40FF0),r13  ; =0xE0D4FE57
  040E00: 000A  sts    MACH,r0
  040E02: DD68  mov.l  @(0x40FA4),r13  ; =0x420BF5E6 (34.9901)
  040E04: FFFF  .word  0xFFFF  ; FPU
  040E06: 7FFC  add    #-4,r15
  040E08: 000B  rts
  040E0A: E554  mov    #84,r5
  040E0C: 000D  mov.w  @(r0,r0),r0
  040E0E: 29BE  mulu.w r11,r9
  040E10: E000  mov    #0,r0
  040E12: C11A  mov.w  r0,@(52,GBR)  ; GBR+0x34
  040E14: C03C  mov.b  r0,@(60,GBR)
  040E16: C440  mov.b  @(64,GBR),r0
  040E18: 8804  cmp/eq #4,r0
  040E1A: 8912  bt     0x40E42
  040E1C: C440  mov.b  @(64,GBR),r0
  040E1E: 8807  cmp/eq #7,r0
  040E20: 890F  bt     0x40E42
  040E22: C440  mov.b  @(64,GBR),r0
  040E24: 1F06  mov.l  r0,@(24,r15)
  040E26: 600C  extu.b r0,r0
  040E28: 8808  cmp/eq #8,r0
  040E2A: 890A  bt     0x40E42
  040E2C: 6083  mov    r8,r0
  040E2E: 8804  cmp/eq #4,r0
  040E30: 8903  bt     0x40E3A
  040E32: 8807  cmp/eq #7,r0
  040E34: 8901  bt     0x40E3A
  040E36: 8808  cmp/eq #8,r0
  040E38: 8B03  bf     0x40E42
  040E3A: E001  mov    #1,r0
  040E3C: C03D  mov.b  r0,@(61,GBR)
  040E3E: E000  mov    #0,r0
  040E40: C11B  mov.w  r0,@(54,GBR)  ; GBR+0x36
  040E42: 2998  tst r9,r9
  040E44: 8B06  bf     0x40E54
  040E46: C44F  mov.b  @(79,GBR),r0
  040E48: 8801  cmp/eq #1,r0
  040E4A: 8B03  bf     0x40E54
  040E4C: E001  mov    #1,r0
  040E4E: C04E  mov.b  r0,@(78,GBR)
  040E50: E000  mov    #0,r0
  040E52: C126  mov.w  r0,@(76,GBR)  ; GBR+0x4C
  040E54: E501  mov    #1,r5
  040E56: C526  mov.w  @(76,GBR),r0  ; GBR+0x4C
  040E58: 4D0B  jsr    @r13
  040E5A: 640D  extu.w r0,r4
  040E5C: C126  mov.w  r0,@(76,GBR)  ; GBR+0x4C
  040E5E: C44E  mov.b  @(78,GBR),r0
  040E60: 8801  cmp/eq #1,r0
  040E62: 8B06  bf     0x40E72
  040E64: C526  mov.w  @(76,GBR),r0  ; GBR+0x4C
  040E66: D681  mov.l  @(0x4106C),r6  ; =0x000D29BE (ROM)
  040E68: 6261  mov.w  @r6,r2
  040E6A: 3026  cmp/hi r2,r0
  040E6C: 8901  bt     0x40E72
  040E6E: A001  bra    0x40E74
  040E70: E401  mov    #1,r4
  040E72: E400  mov    #0,r4
  040E74: 60A3  mov    r10,r0
  040E76: C04F  mov.b  r0,@(79,GBR)
  040E78: C43C  mov.b  @(60,GBR),r0
  040E7A: 8801  cmp/eq #1,r0
  040E7C: 8B12  bf     0x40EA4
  040E7E: C51A  mov.w  @(52,GBR),r0  ; GBR+0x34
  040E80: D67A  mov.l  @(0x4106C),r6  ; =0x000D29BE (ROM)
  040E82: 6261  mov.w  @r6,r2
  040E84: 3026  cmp/hi r2,r0
  040E86: 890D  bt     0x40EA4
  040E88: D279  mov.l  @(0x41070),r2  ; =0x000BEA40 (ROM)
  040E8A: DE7A  mov.l  @(0x41074),r14  ; =0xFFFF7FFC (RAM)
  040E8C: E0B8  mov    #-72,r0
  040E8E: F4E6  fmov.s @(r0,r14),fr4
  040E90: C779  mova   @(0x41078),r0
  040E92: F708  fmov.s @r0,fr7
  040E94: D679  mov.l  @(0x4107C),r6  ; =0x000D2B88 (ROM)
  040E96: F668  fmov.s @r6,fr6
  040E98: E0B4  mov    #-76,r0
  040E9A: 420B  jsr    @r2
  040E9C: F5E6  fmov.s @(r0,r14),fr5
  040E9E: E0B4  mov    #-76,r0
  040EA0: A040  bra    0x40F24
  040EA2: FE07  fmov.s fr0,@(r0,r14)
  040EA4: 60E3  mov    r14,r0
  040EA6: 8801  cmp/eq #1,r0
  040EA8: 8B0D  bf     0x40EC6
  040EAA: D271  mov.l  @(0x41070),r2  ; =0x000BEA40 (ROM)
  040EAC: DE71  mov.l  @(0x41074),r14  ; =0xFFFF7FFC (RAM)
  040EAE: E0B8  mov    #-72,r0
  040EB0: F4E6  fmov.s @(r0,r14),fr4
  040EB2: C771  mova   @(0x41078),r0
  040EB4: F708  fmov.s @r0,fr7
  040EB6: E0B4  mov    #-76,r0
  040EB8: F5E6  fmov.s @(r0,r14),fr5
  040EBA: D671  mov.l  @(0x41080),r6  ; =0x000D2B84 (ROM)
  040EBC: 420B  jsr    @r2
  040EBE: F668  fmov.s @r6,fr6
  040EC0: E0B4  mov    #-76,r0
  040EC2: A02F  bra    0x40F24
  040EC4: FE07  fmov.s fr0,@(r0,r14)
  040EC6: C43D  mov.b  @(61,GBR),r0
  040EC8: 8801  cmp/eq #1,r0
  040ECA: 8B15  bf     0x40EF8
  040ECC: C51B  mov.w  @(54,GBR),r0  ; GBR+0x36
  040ECE: 1F07  mov.l  r0,@(28,r15)
  040ED0: 650D  extu.w r0,r5
  040ED2: D66C  mov.l  @(0x41084),r6  ; =0x000D29C0 (ROM)
  040ED4: 6261  mov.w  @r6,r2
  040ED6: 662D  extu.w r2,r6
  040ED8: 3567  cmp/gt r6,r5
  040EDA: 890D  bt     0x40EF8
  040EDC: D264  mov.l  @(0x41070),r2  ; =0x000BEA40 (ROM)
  040EDE: DE65  mov.l  @(0x41074),r14  ; =0xFFFF7FFC (RAM)
  040EE0: E0B8  mov    #-72,r0
  040EE2: F4E6  fmov.s @(r0,r14),fr4
  040EE4: C764  mova   @(0x41078),r0
  040EE6: F708  fmov.s @r0,fr7
  040EE8: E0B4  mov    #-76,r0
  040EEA: F5E6  fmov.s @(r0,r14),fr5
  040EEC: D666  mov.l  @(0x41088),r6  ; =0x000D2B8C (ROM)
  040EEE: 420B  jsr    @r2
  040EF0: F668  fmov.s @r6,fr6
  040EF2: E0B4  mov    #-76,r0
  040EF4: A016  bra    0x40F24
  040EF6: FE07  fmov.s fr0,@(r0,r14)
  040EF8: 6043  mov    r4,r0
  040EFA: 8801  cmp/eq #1,r0
  040EFC: 8B0D  bf     0x40F1A
  040EFE: D25C  mov.l  @(0x41070),r2  ; =0x000BEA40 (ROM)
  040F00: DE5C  mov.l  @(0x41074),r14  ; =0xFFFF7FFC (RAM)
  040F02: E0B8  mov    #-72,r0
  040F04: F4E6  fmov.s @(r0,r14),fr4
  040F06: C75C  mova   @(0x41078),r0
  040F08: F708  fmov.s @r0,fr7
  040F0A: E0B4  mov    #-76,r0
  040F0C: F5E6  fmov.s @(r0,r14),fr5
  040F0E: D65F  mov.l  @(0x4108C),r6  ; =0x000D2B90 (ROM)
  040F10: 420B  jsr    @r2
  040F12: F668  fmov.s @r6,fr6
  040F14: E0B4  mov    #-76,r0
  040F16: A005  bra    0x40F24
  040F18: FE07  fmov.s fr0,@(r0,r14)
  040F1A: DE56  mov.l  @(0x41074),r14  ; =0xFFFF7FFC (RAM)
  040F1C: E0B8  mov    #-72,r0
  040F1E: F8E6  fmov.s @(r0,r14),fr8
  040F20: E0B4  mov    #-76,r0
  040F22: FE87  fmov.s fr8,@(r0,r14)
  040F24: 6083  mov    r8,r0
  040F26: 8804  cmp/eq #4,r0
  040F28: 8904  bt     0x40F34
  040F2A: 8807  cmp/eq #7,r0
  040F2C: 8902  bt     0x40F34
  040F2E: 8808  cmp/eq #8,r0
  040F30: D457  mov.l  @(0x41090),r4  ; =0x000ADD90 (ROM)
  040F32: 8B00  bf     0x40F36
  040F34: D457  mov.l  @(0x41094),r4  ; =0x000ADDA4 (ROM)
  040F36: 51F4  mov.l  @(16,r15),r1
  040F38: 410B  jsr    @r1
  040F3A: F4CC  fmov   fr12,fr4
  040F3C: DE4D  mov.l  @(0x41074),r14  ; =0xFFFF7FFC (RAM)
  040F3E: E0BC  mov    #-68,r0
  040F40: FE07  fmov.s fr0,@(r0,r14)
  040F42: D455  mov.l  @(0x41098),r4  ; =0x000ADDB8 (ROM)
  040F44: 51F4  mov.l  @(16,r15),r1
  040F46: 410B  jsr    @r1
  040F48: F4F8  fmov.s @r15,fr4
  040F4A: E0C8  mov    #-56,r0
  040F4C: FE07  fmov.s fr0,@(r0,r14)
  040F4E: D253  mov.l  @(0x4109C),r2  ; =0x000D2BDC (ROM)
  040F50: F928  fmov.s @r2,fr9
  040F52: FD91  fsub fr9,fr13
  040F54: E0CC  mov    #-52,r0
  040F56: FED7  fmov.s fr13,@(r0,r14)
  040F58: D251  mov.l  @(0x410A0),r2  ; =0x000D2BEC (ROM)
  040F5A: F828  fmov.s @r2,fr8
  040F5C: F8F5  fcmp/gt fr15,fr8
  040F5E: 8901  bt     0x40F64
  040F60: E001  mov    #1,r0
  040F62: C046  mov.b  r0,@(70,GBR)
  040F64: 84F4  mov.b  @(4,r15),r0
  040F66: 8802  cmp/eq #2,r0
  040F68: 8940  bt     0x40FEC
  040F6A: D64E  mov.l  @(0x410A4),r6  ; =0x000D29C6 (ROM)
  040F6C: 6261  mov.w  @r6,r2
  040F6E: 662D  extu.w r2,r6
  040F70: 57F3  mov.l  @(12,r15),r7
  040F72: 3763  cmp/ge r6,r7
  040F74: 8B2B  bf     0x40FCE
  040F76: 84F8  mov.b  @(8,r15),r0
  040F78: 8801  cmp/eq #1,r0
  040F7A: 8B28  bf     0x40FCE
  040F7C: C446  mov.b  @(70,GBR),r0
  040F7E: 1F08  mov.l  r0,@(32,r15)
  040F80: 600C  extu.b r0,r0
  040F82: 8801  cmp/eq #1,r0
  040F84: 8B23  bf     0x40FCE
  040F86: DE3B  mov.l  @(0x41074),r14  ; =0xFFFF7FFC (RAM)
  040F88: E0CC  mov    #-52,r0
  040F8A: F9E6  fmov.s @(r0,r14),fr9
  040F8C: D246  mov.l  @(0x410A8),r2  ; =0x000D2BE4 (ROM)
  040F8E: F828  fmov.s @r2,fr8
  040F90: F985  fcmp/gt fr8,fr9
  040F92: D237  mov.l  @(0x41070),r2  ; =0x000BEA40 (ROM)
  040F94: 8D0F  bt/s   0x40FB6
  040F96: 1F25  mov.l  r2,@(20,r15)
  040F98: F4E6  fmov.s @(r0,r14),fr4
  040F9A: C744  mova   @(0x410AC),r0
  040F9C: F708  fmov.s @r0,fr7
  040F9E: D644  mov.l  @(0x410B0),r6  ; =0x000D2BE0 (ROM)
  040FA0: F668  fmov.s @r6,fr6
  040FA2: E0D0  mov    #-48,r0
  040FA4: 420B  jsr    @r2
  040FA6: F5E6  fmov.s @(r0,r14),fr5
  040FA8: F40C  fmov   fr0,fr4
  040FAA: D642  mov.l  @(0x410B4),r6  ; =0x000BE960 (ROM)
  040FAC: 460B  jsr    @r6
  040FAE: F58D  fldi0  fr5
  040FB0: E0D0  mov    #-48,r0
  040FB2: A003  bra    0x40FBC
  040FB4: FE07  fmov.s fr0,@(r0,r14)
  040FB6: F8E6  fmov.s @(r0,r14),fr8
  040FB8: E0D0  mov    #-48,r0
  040FBA: FE87  fmov.s fr8,@(r0,r14)
  040FBC: D43E  mov.l  @(0x410B8),r4  ; =0x000ADDCC (ROM)
  040FBE: 51F4  mov.l  @(16,r15),r1
  040FC0: DE2C  mov.l  @(0x41074),r14  ; =0xFFFF7FFC (RAM)
  040FC2: E0D0  mov    #-48,r0
  040FC4: 410B  jsr    @r1
  040FC6: F4E6  fmov.s @(r0,r14),fr4
  040FC8: E0D4  mov    #-44,r0
  040FCA: A015  bra    0x40FF8
  040FCC: FE07  fmov.s fr0,@(r0,r14)
  040FCE: DE29  mov.l  @(0x41074),r14  ; =0xFFFF7FFC (RAM)
  040FD0: E0CC  mov    #-52,r0
  040FD2: F8E6  fmov.s @(r0,r14),fr8
  040FD4: E0D0  mov    #-48,r0
  040FD6: FE87  fmov.s fr8,@(r0,r14)
  040FD8: D437  mov.l  @(0x410B8),r4  ; =0x000ADDCC (ROM)
  040FDA: 51F4  mov.l  @(16,r15),r1
  040FDC: 410B  jsr    @r1
  040FDE: F4E6  fmov.s @(r0,r14),fr4
  040FE0: E0D4  mov    #-44,r0
  040FE2: FE07  fmov.s fr0,@(r0,r14)
  040FE4: F89D  fldi1  fr8
  040FE6: E0D8  mov    #-40,r0
  040FE8: A013  bra    0x41012
  040FEA: FE87  fmov.s fr8,@(r0,r14)
  040FEC: F58D  fldi0  fr5
  040FEE: DE21  mov.l  @(0x41074),r14  ; =0xFFFF7FFC (RAM)
  040FF0: E0D4  mov    #-44,r0
  040FF2: FE57  fmov.s fr5,@(r0,r14)
  040FF4: D21E  mov.l  @(0x41070),r2  ; =0x000BEA40 (ROM)
  040FF6: 1F25  mov.l  r2,@(20,r15)
  040FF8: 52F5  mov.l  @(20,r15),r2
  040FFA: DE1E  mov.l  @(0x41074),r14  ; =0xFFFF7FFC (RAM)
  040FFC: E0D4  mov    #-44,r0
  040FFE: F4E6  fmov.s @(r0,r14),fr4
  041000: E0D8  mov    #-40,r0
  041002: F5E6  fmov.s @(r0,r14),fr5
  041004: C72D  mova   @(0x410BC),r0
  041006: F708  fmov.s @r0,fr7
  041008: D62D  mov.l  @(0x410C0),r6  ; =0x000D2BE8 (ROM)
  04100A: 420B  jsr    @r2
  04100C: F668  fmov.s @r6,fr6
  04100E: E0D8  mov    #-40,r0
  041010: FE07  fmov.s fr0,@(r0,r14)
  041012: 7F24  add    #36,r15
  041014: 4F17  ldc.l  @r15+,GBR
  041016: FFF9  fmov.s @r15+,fr15
  041018: FEF9  fmov.s @r15+,fr14
  04101A: FDF9  fmov.s @r15+,fr13
  04101C: FCF9  fmov.s @r15+,fr12
  04101E: 4F26  lds.l  @r15+,PR
  041020: 6EF6  mov.l  @r15+,r14
  041022: 6DF6  mov.l  @r15+,r13
  041024: 6CF6  mov.l  @r15+,r12
  041026: 6BF6  mov.l  @r15+,r11
  041028: 6AF6  mov.l  @r15+,r10
  04102A: 69F6  mov.l  @r15+,r9
  04102C: 000B  rts
  04102E: 68F6  mov.l  @r15+,r8
  041030: 4F22  sts.l  PR,@-r15
  041032: D224  mov.l  @(0x410C4),r2  ; =0x00023E48 (ROM)
  041034: 420B  jsr    @r2
  041036: 0009  nop
  041038: 620C  extu.b r0,r2
  04103A: D623  mov.l  @(0x410C8),r6  ; =0xFFFF7FD4 (RAM) [timing_ws_gbr]
  04103C: E0E4  mov    #-28,r0
  04103E: F866  fmov.s @(r0,r6),fr8
  041040: E0DC  mov    #-36,r0
  041042: F966  fmov.s @(r0,r6),fr9
  041044: F892  fmul fr9,fr8
  041046: E0F0  mov    #-16,r0
  041048: F966  fmov.s @(r0,r6),fr9
  04104A: F892  fmul fr9,fr8
  04104C: F968  fmov.s @r6,fr9
  04104E: F892  fmul fr9,fr8
  041050: C71E  mova   @(0x410CC),r0
  041052: F908  fmov.s @r0,fr9
  041054: 6023  mov    r2,r0
  041056: 8801  cmp/eq #1,r0
  041058: 8F03  bf/s   0x41062
  04105A: F892  fmul fr9,fr8
  04105C: D21C  mov.l  @(0x410D0),r2  ; =0x000D2B9C (ROM)
  04105E: F928  fmov.s @r2,fr9
  041060: F892  fmul fr9,fr8
  041062: E0EC  mov    #-20,r0
  041064: 4F26  lds.l  @r15+,PR
  041066: 000B  rts
  041068: F687  fmov.s fr8,@(r0,r6)
  04106A: 0000  .word  0x0000
  04106C: 000D  mov.w  @(r0,r0),r0
  04106E: 29BE  mulu.w r11,r9
  041070: 000B  rts
  041072: EA40  mov    #64,r10
  041074: FFFF  .word  0xFFFF  ; FPU
  041076: 7FFC  add    #-4,r15
  041078: 3AB4  div1 r11,r10
  04107A: 0000  .word  0x0000
  04107C: 000D  mov.w  @(r0,r0),r0
  04107E: 2B88  tst r8,r11
  041080: 000D  mov.w  @(r0,r0),r0
  041082: 2B84  mov.b  r8,@-r11
  041084: 000D  mov.w  @(r0,r0),r0
  041086: 29C0  mov.b  r12,@r9
  041088: 000D  mov.w  @(r0,r0),r0
  04108A: 2B8C  cmp/str r8,r11
  04108C: 000D  mov.w  @(r0,r0),r0
  04108E: 2B90  mov.b  r9,@r11
  041090: 000A  sts    MACH,r0
  041092: DD90  mov.l  @(0x412D4),r13  ; =0xA136F481
  041094: 000A  sts    MACH,r0
  041096: DDA4  mov.l  @(0x41328),r13  ; =0xFFFF895C (RAM)
  041098: 000A  sts    MACH,r0
  04109A: DDB8  mov.l  @(0x4137C),r13  ; =0x000AE0C4 (ROM)
  04109C: 000D  mov.w  @(r0,r0),r0
  04109E: 2BDC  cmp/str r13,r11
  0410A0: 000D  mov.w  @(r0,r0),r0
  0410A2: 2BEC  cmp/str r14,r11
  0410A4: 000D  mov.w  @(r0,r0),r0
  0410A6: 29C6  mov.l  r12,@-r9
  0410A8: 000D  mov.w  @(r0,r0),r0
  0410AA: 2BE4  mov.b  r14,@-r11
  0410AC: 3A83  cmp/ge r8,r10
  0410AE: 126E  mov.l  r6,@(56,r2)
  0410B0: 000D  mov.w  @(r0,r0),r0
  0410B2: 2BE0  mov.b  r14,@r11
  0410B4: 000B  rts
  0410B6: E960  mov    #96,r9
  0410B8: 000A  sts    MACH,r0
  0410BA: DDCC  mov.l  @(0x413EC),r13  ; =0x88018B29
  0410BC: 3A00  cmp/eq r0,r10
  0410BE: 0000  .word  0x0000
  0410C0: 000D  mov.w  @(r0,r0),r0
  0410C2: 2BE8  tst r14,r11
  0410C4: 0002  stc    SR,r0
  0410C6: 3E48  sub r4,r14
  0410C8: FFFF  .word  0xFFFF  ; FPU
  0410CA: 7FD4  add    #-44,r15
  0410CC: 3C23  cmp/ge r2,r12
  0410CE: D70A  mov.l  @(0x410F8),r7  ; =0xD289F828
  0410D0: 000D  mov.w  @(r0,r0),r0
  0410D2: 2B9C  cmp/str r9,r11
  0410D4: 2F86  mov.l  r8,@-r15
  0410D6: 2F96  mov.l  r9,@-r15
  0410D8: 2FA6  mov.l  r10,@-r15
  0410DA: 2FB6  mov.l  r11,@-r15
  0410DC: 2FC6  mov.l  r12,@-r15
  0410DE: 2FD6  mov.l  r13,@-r15
  0410E0: 2FE6  mov.l  r14,@-r15
  0410E2: 4F22  sts.l  PR,@-r15
  0410E4: FFCB  fmov.s fr12,@-r15
  0410E6: FFDB  fmov.s fr13,@-r15
  0410E8: FFEB  fmov.s fr14,@-r15
  0410EA: FFFB  fmov.s fr15,@-r15
  0410EC: 4F13  .word  0x4F13
  0410EE: D08A  mov.l  @(0x41318),r0  ; =0xFFFF7FBC (RAM)
  0410F0: 401E  ldc    r0,GBR
  0410F2: 7FB8  add    #-72,r15
  0410F4: D289  mov.l  @(0x4131C),r2  ; =0xFFFF6354 (RAM)
  0410F6: FC28  fmov.s @r2,fr12
  0410F8: D289  mov.l  @(0x41320),r2  ; =0xFFFF65FC (RAM)
  0410FA: F828  fmov.s @r2,fr8
  0410FC: FF8A  fmov.s fr8,@r15
  0410FE: D289  mov.l  @(0x41324),r2  ; =0xFFFF6624 (RAM) [rpm_current]
  041100: F828  fmov.s @r2,fr8
  041102: E004  mov    #4,r0
  041104: FF87  fmov.s fr8,@(r0,r15)
  041106: D288  mov.l  @(0x41328),r2  ; =0xFFFF895C (RAM)
  041108: F728  fmov.s @r2,fr7
  04110A: E008  mov    #8,r0
  04110C: FF77  fmov.s fr7,@(r0,r15)
  04110E: D287  mov.l  @(0x4132C),r2  ; =0xFFFF6634 (RAM)
  041110: F828  fmov.s @r2,fr8
  041112: E00C  mov    #12,r0
  041114: FF87  fmov.s fr8,@(r0,r15)
  041116: D686  mov.l  @(0x41330),r6  ; =0xFFFF67EC (RAM) [engine_run_time]

  --- Literal Pool References ---
    0x040B7C: 0xFFFF7FD4  RAM [timing_ws_gbr]
    0x040B80: 0xFFFF65C0  RAM [throttle_position]
    0x040B84: 0xFFFF85D7  RAM [unknown]
    0x040B88: 0xFFFF90BE  RAM [timing_ws_scratch]
    0x040B8C: 0xFFFF8E7E  RAM [timing_ws_state]
    0x040B90: 0xFFFF7FBC  RAM [unknown]
    0x040B94: 0x00022F92
    0x040B98: 0xFFFF8970  RAM [unknown]
    0x040B9C: 0x0002F8EA
    0x040BA0: 0x00022CF4
    0x040BA4: 0xFFFF7FE6  RAM [unknown]
    0x040BA8: 0x000BE554
    0x040BAC: 0xFFFF7FE8  RAM [unknown]
    0x040BB0: 0x000D29C2
    0x040BB4: 0x000D29C4
    0x040BB8: 0xFFFF7FDC  RAM [unknown]
    0x040BBC: 0xFFFF7FB0  RAM [unknown]
    0x040BC0: 0xFFFF6354  RAM [unknown]
    0x040BC4: 0xFFFF6624  RAM [rpm_current]
    0x040BC8: 0xFFFF6898  RAM [manifold_pressure]
    0x040BCC: 0xFFFF67EC  RAM [engine_run_time]
    0x040BD0: 0xFFFF3158  RAM [unknown]
    0x040BD4: 0xFFFF6210  RAM [unknown]
    0x040BD8: 0x00029A64
    0x040BDC: 0x000297D0
    0x040BE0: 0xFFFF65FC  RAM [unknown]
    0x040BE4: 0x000D297C
    0x040BE8: 0x000ADC3C
    0x040BEC: 0x000BE830  [table_desc_1d_float]
    0x040CDC: 0xD2391F24
    0x040DBC: 0x000D29BC
    0x040DC0: 0x000ADC64
    0x040DC4: 0x000BE830  [table_desc_1d_float]
    0x040DC8: 0x000ADC50
    0x040DCC: 0x000ADC8C
    0x040DD0: 0x000ADC78
    0x040DD4: 0x000ADCB4
    0x040DD8: 0x000ADCA0
    0x040DDC: 0x000ADCDC
    0x040DE0: 0x000ADCC8
    0x040DE4: 0x000ADD04
    0x040DE8: 0x000ADCF0
    0x040DEC: 0x000ADD2C
    0x040DF0: 0x000ADD18
    0x040DF4: 0x000ADD54
    0x040DF8: 0x000ADD40
    0x040DFC: 0x000ADD7C
    0x040E00: 0x000ADD68
    0x040E04: 0xFFFF7FFC  RAM [unknown]
    0x040E08: 0x000BE554
    0x040E0C: 0x000D29BE
    0x040F54: 0xE0CCFED7
    0x040F0C: 0xF5E6D65F
    0x041000: 0xE0D8F5E6
    0x040FB4: 0xFE07F8E6
    0x0410A8: 0x000D2BE4  (ROM cal: -1000)
    0x04105C: 0xD21CF928
    0x041150: 0xE018FF87
    0x041104: 0xFF87D288
    0x0411AC: 0xF4CCE028
    0x040EA0: 0xA040FE07
    0x040E54: 0xE501C526
    0x040F48: 0xF4F8E0C8
    0x040EFC: 0x8B0DD25C
    0x040FF0: 0xE0D4FE57
    0x040FA4: 0x420BF5E6  (float: 34.9901)
    0x04106C: 0x000D29BE
    0x041070: 0x000BEA40
    0x041074: 0xFFFF7FFC  RAM [unknown]
    0x04107C: 0x000D2B88  (ROM cal: 1)
    0x041080: 0x000D2B84  (ROM cal: 1)
    0x041084: 0x000D29C0
    0x041088: 0x000D2B8C  (ROM cal: 1)
    0x04108C: 0x000D2B90  (ROM cal: 1)
    0x041090: 0x000ADD90
    0x041094: 0x000ADDA4
    0x041098: 0x000ADDB8
    0x04109C: 0x000D2BDC  (ROM cal: -160)
    0x0410A0: 0x000D2BEC  (ROM cal: 1000)
    0x0410A4: 0x000D29C6
    0x0410B0: 0x000D2BE0  (ROM cal: 1)
    0x0410B4: 0x000BE960
    0x0410B8: 0x000ADDCC
    0x0410C0: 0x000D2BE8  (ROM cal: 1)
    0x0410C4: 0x00023E48
    0x0410C8: 0xFFFF7FD4  RAM [timing_ws_gbr]
    0x0410D0: 0x000D2B9C
    0x0412D4: 0xA136F481
    0x041328: 0xFFFF895C  RAM [unknown]
    0x04137C: 0x000AE0C4
    0x0413EC: 0x88018B29
    0x0410F8: 0xD289F828
    0x041318: 0xFFFF7FBC  RAM [unknown]
    0x04131C: 0xFFFF6354  RAM [unknown]
    0x041320: 0xFFFF65FC  RAM [unknown]
    0x041324: 0xFFFF6624  RAM [rpm_current]
    0x04132C: 0xFFFF6634  RAM [unknown]
    0x041330: 0xFFFF67EC  RAM [engine_run_time]

  --- Subroutine calls ---
    0x04091A -> FUN_040A9C @ 0x040A9C
    0x04091E -> FUN_040AF6 @ 0x040AF6
    0x040922 -> FUN_041030 @ 0x041030
    0x04097A -> FUN_022F92 @ 0x022F92
    0x0409DA -> FUN_02F8EA @ 0x02F8EA
    0x0409E0 -> FUN_022CF4 @ 0x022CF4
    0x040A1A -> FUN_0BE554 @ 0x0BE554
    0x040A50 -> FUN_0BE554 @ 0x0BE554
    0x040A78 -> FUN_0BE554 @ 0x0BE554
    0x040AA2 -> FUN_022CF4 @ 0x022CF4
    0x040AA8 -> FUN_02F8EA @ 0x02F8EA
    0x040B3E -> FUN_029A64 @ 0x029A64
    0x040B44 -> FUN_0297D0 @ 0x0297D0
    0x040B72 -> table_desc_1d_float @ 0x0BE830
    0x040C1C -> table_desc_1d_float @ 0x0BE830
    0x040C2A -> table_desc_1d_float @ 0x0BE830
    0x040C44 -> table_desc_1d_float @ 0x0BE830
    0x040C52 -> table_desc_1d_float @ 0x0BE830
    0x040C74 -> table_desc_1d_float @ 0x0BE830
    0x040C82 -> table_desc_1d_float @ 0x0BE830
    0x040C9C -> table_desc_1d_float @ 0x0BE830
    0x040CAA -> table_desc_1d_float @ 0x0BE830
    0x040CD2 -> table_desc_1d_float @ 0x0BE830
    0x040CE0 -> table_desc_1d_float @ 0x0BE830
    0x040CFA -> table_desc_1d_float @ 0x0BE830
    0x040D08 -> table_desc_1d_float @ 0x0BE830
    0x040D2A -> table_desc_1d_float @ 0x0BE830
    0x040D38 -> table_desc_1d_float @ 0x0BE830
    0x040D52 -> table_desc_1d_float @ 0x0BE830
    0x040D60 -> table_desc_1d_float @ 0x0BE830
    0x040D82 -> FUN_0BE554 @ 0x0BE554
    0x040DB2 -> jsr @r13 (unresolved)
    0x040E58 -> jsr @r13 (unresolved)
    0x040E9A -> FUN_0BEA40 @ 0x0BEA40
    0x040EBC -> FUN_0BEA40 @ 0x0BEA40
    0x040EEE -> FUN_0BEA40 @ 0x0BEA40
    0x040F10 -> FUN_0BEA40 @ 0x0BEA40
    0x040F38 -> jsr @r1 (unresolved)
    0x040F46 -> jsr @r1 (unresolved)
    0x040FA4 -> FUN_0BEA40 @ 0x0BEA40
    0x040FAC -> FUN_0BE960 @ 0x0BE960
    0x040FC4 -> jsr @r1 (unresolved)
    0x040FDC -> jsr @r1 (unresolved)
    0x04100A -> FUN_0BEA40 @ 0x0BEA40
    0x041034 -> FUN_023E48 @ 0x023E48

==============================================================================
  task50_timing_blend_int  @  0x3F368
==============================================================================
  03F368: 2F96  mov.l  r9,@-r15
  03F36A: 2FA6  mov.l  r10,@-r15
  03F36C: 2FB6  mov.l  r11,@-r15
  03F36E: 2FC6  mov.l  r12,@-r15
  03F370: 2FD6  mov.l  r13,@-r15
  03F372: 2FE6  mov.l  r14,@-r15
  03F374: 4F22  sts.l  PR,@-r15
  03F376: FFCB  fmov.s fr12,@-r15
  03F378: FFDB  fmov.s fr13,@-r15
  03F37A: FFEB  fmov.s fr14,@-r15
  03F37C: FFFB  fmov.s fr15,@-r15
  03F37E: 4F13  .word  0x4F13
  03F380: D061  mov.l  @(0x3F508),r0  ; =0xFFFF7E90 (RAM)
  03F382: 401E  ldc    r0,GBR
  03F384: 7FB0  add    #-80,r15
  03F386: D261  mov.l  @(0x3F50C),r2  ; =0xFFFF6624 (RAM) [rpm_current]
  03F388: FC28  fmov.s @r2,fr12
  03F38A: D261  mov.l  @(0x3F510),r2  ; =0xFFFF62F8 (RAM)
  03F38C: FE28  fmov.s @r2,fr14
  03F38E: D261  mov.l  @(0x3F514),r2  ; =0xFFFF65FC (RAM)
  03F390: FF28  fmov.s @r2,fr15
  03F392: D261  mov.l  @(0x3F518),r2  ; =0xFFFF6350 (RAM) [ect_current]
  03F394: F828  fmov.s @r2,fr8
  03F396: FF8A  fmov.s fr8,@r15
  03F398: D260  mov.l  @(0x3F51C),r2  ; =0xFFFF7F68 (RAM)
  03F39A: F828  fmov.s @r2,fr8
  03F39C: E004  mov    #4,r0
  03F39E: FF87  fmov.s fr8,@(r0,r15)
  03F3A0: D65F  mov.l  @(0x3F520),r6  ; =0xFFFF8F16 (RAM)
  03F3A2: 6C60  mov.b  @r6,r12
  03F3A4: D65F  mov.l  @(0x3F524),r6  ; =0xFFFF8F24 (RAM)
  03F3A6: 6B60  mov.b  @r6,r11
  03F3A8: D65F  mov.l  @(0x3F528),r6  ; =0xFFFF85D7 (RAM)
  03F3AA: 6A60  mov.b  @r6,r10
  03F3AC: D65F  mov.l  @(0x3F52C),r6  ; =0xFFFF5BE3 (RAM)
  03F3AE: 6E60  mov.b  @r6,r14
  03F3B0: D65F  mov.l  @(0x3F530),r6  ; =0xFFFF65BF (RAM)
  03F3B2: 6D60  mov.b  @r6,r13
  03F3B4: D65F  mov.l  @(0x3F534),r6  ; =0xFFFF7D18 (RAM) [sched_status_R1]
  03F3B6: D260  mov.l  @(0x3F538),r2  ; =0x0005EB32 (ROM)
  03F3B8: 420B  jsr    @r2
  03F3BA: 6960  mov.b  @r6,r9
  03F3BC: 620C  extu.b r0,r2
  03F3BE: D65F  mov.l  @(0x3F53C),r6  ; =0xFFFF7FBC (RAM)
  03F3C0: F868  fmov.s @r6,fr8
  03F3C2: E008  mov    #8,r0
  03F3C4: FF87  fmov.s fr8,@(r0,r15)
  03F3C6: 65EC  extu.b r14,r5
  03F3C8: 6053  mov    r5,r0
  03F3CA: 8801  cmp/eq #1,r0
  03F3CC: 8B02  bf     0x3F3D4
  03F3CE: E000  mov    #0,r0
  03F3D0: A010  bra    0x3F3F4
  03F3D2: C071  mov.b  r0,@(113,GBR)
  03F3D4: C473  mov.b  @(115,GBR),r0
  03F3D6: 8801  cmp/eq #1,r0
  03F3D8: 8B03  bf     0x3F3E2
  03F3DA: D459  mov.l  @(0x3F540),r4  ; =0x000D2974 (ROM)
  03F3DC: 6040  mov.b  @r4,r0
  03F3DE: A009  bra    0x3F3F4
  03F3E0: C071  mov.b  r0,@(113,GBR)
  03F3E2: C471  mov.b  @(113,GBR),r0
  03F3E4: 640C  extu.b r0,r4
  03F3E6: 4415  cmp/pl  r4
  03F3E8: 8F04  bf/s   0x3F3F4
  03F3EA: 1F0E  mov.l  r0,@(56,r15)
  03F3EC: C471  mov.b  @(113,GBR),r0
  03F3EE: 1F0F  mov.l  r0,@(60,r15)
  03F3F0: 70FF  add    #-1,r0
  03F3F2: C071  mov.b  r0,@(113,GBR)
  03F3F4: 60E3  mov    r14,r0
  03F3F6: C073  mov.b  r0,@(115,GBR)
  03F3F8: 64DC  extu.b r13,r4
  03F3FA: 6043  mov    r4,r0
  03F3FC: 8801  cmp/eq #1,r0
  03F3FE: 8B02  bf     0x3F406
  03F400: E000  mov    #0,r0
  03F402: A015  bra    0x3F430
  03F404: C072  mov.b  r0,@(114,GBR)
  03F406: C474  mov.b  @(116,GBR),r0
  03F408: 8801  cmp/eq #1,r0
  03F40A: 8B03  bf     0x3F414
  03F40C: D14D  mov.l  @(0x3F544),r1  ; =0x000D2975 (ROM)
  03F40E: 6010  mov.b  @r1,r0
  03F410: A00E  bra    0x3F430
  03F412: C072  mov.b  r0,@(114,GBR)
  03F414: C472  mov.b  @(114,GBR),r0
  03F416: 6603  mov    r0,r6
  03F418: E040  mov    #64,r0
  03F41A: 616C  extu.b r6,r1
  03F41C: 4115  cmp/pl  r1
  03F41E: 8F07  bf/s   0x3F430
  03F420: 0F66  mov.l  r6,@(r0,r15)
  03F422: C472  mov.b  @(114,GBR),r0
  03F424: 6603  mov    r0,r6
  03F426: E044  mov    #68,r0
  03F428: 0F66  mov.l  r6,@(r0,r15)
  03F42A: 76FF  add    #-1,r6
  03F42C: 6063  mov    r6,r0
  03F42E: C072  mov.b  r0,@(114,GBR)
  03F430: 60D3  mov    r13,r0
  03F432: C074  mov.b  r0,@(116,GBR)
  03F434: 6ECC  extu.b r12,r14
  03F436: 60E3  mov    r14,r0
  03F438: 8803  cmp/eq #3,r0
  03F43A: 8B12  bf     0x3F462
  03F43C: D242  mov.l  @(0x3F548),r2  ; =0xFFFF7F0C (RAM) [timing_blend_gbr]
  03F43E: FD28  fmov.s @r2,fr13
  03F440: D242  mov.l  @(0x3F54C),r2  ; =0xFFFF8258 (RAM)
  03F442: F028  fmov.s @r2,fr0
  03F444: C742  mova   @(0x3F550),r0
  03F446: F908  fmov.s @r0,fr9
  03F448: FD9E  fmac   fr0,fr9,fr13
  03F44A: D242  mov.l  @(0x3F554),r2  ; =0x000D2A34 [cal:MapSwitch_IdleModeThreshold]
  03F44C: F928  fmov.s @r2,fr9
  03F44E: FD91  fsub fr9,fr13
  03F450: E00C  mov    #12,r0
  03F452: FFD7  fmov.s fr13,@(r0,r15)
  03F454: FFDC  fmov   fr13,fr15
  03F456: FCDC  fmov   fr13,fr12
  03F458: D63F  mov.l  @(0x3F558),r6  ; =0xFFFF81DC (RAM)
  03F45A: 1F64  mov.l  r6,@(16,r15)
  03F45C: D53F  mov.l  @(0x3F55C),r5  ; =0x000BE970 (ROM)
  03F45E: A216  bra    0x3F88E
  03F460: 1F55  mov.l  r5,@(20,r15)
  03F462: 60E3  mov    r14,r0
  03F464: 8801  cmp/eq #1,r0
  03F466: 8B03  bf     0x3F470
  03F468: DC3D  mov.l  @(0x3F560),r12  ; =0xFFFF7F04 (RAM)
  03F46A: E0D8  mov    #-40,r0
  03F46C: A0AA  bra    0x3F5C4
  03F46E: FFC6  fmov.s @(r0,r12),fr15
  03F470: 60BC  extu.b r11,r0
  03F472: 8801  cmp/eq #1,r0
  03F474: 8B11  bf     0x3F49A
  03F476: 6023  mov    r2,r0
  03F478: 8801  cmp/eq #1,r0
  03F47A: 8B0E  bf     0x3F49A
  03F47C: 60AC  extu.b r10,r0
  03F47E: 8801  cmp/eq #1,r0
  03F480: 8B0B  bf     0x3F49A
  03F482: E004  mov    #4,r0
  03F484: F8F6  fmov.s @(r0,r15),fr8
  03F486: F58D  fldi0  fr5
  03F488: F855  fcmp/gt fr5,fr8
  03F48A: 8906  bt     0x3F49A
  03F48C: D235  mov.l  @(0x3F564),r2  ; =0x000D2A08 [cal:MapSwitch_EngineSpeedThreshold]
  03F48E: F828  fmov.s @r2,fr8
  03F490: F8C5  fcmp/gt fr12,fr8
  03F492: 8B02  bf     0x3F49A
  03F494: D234  mov.l  @(0x3F568),r2  ; =0xFFFF7F1C (RAM)
  03F496: A095  bra    0x3F5C4
  03F498: FF28  fmov.s @r2,fr15
  03F49A: D234  mov.l  @(0x3F56C),r2  ; =0x000D2A0C [cal:MapSwitch_TorqueRatioThreshold]
  03F49C: F828  fmov.s @r2,fr8
  03F49E: F8E5  fcmp/gt fr14,fr8
  03F4A0: 8B70  bf     0x3F584
  03F4A2: D233  mov.l  @(0x3F570),r2  ; =0x000D2A10 [cal:MapSwitch_MAFLoadThreshold]
  03F4A4: F828  fmov.s @r2,fr8
  03F4A6: F8F5  fcmp/gt fr15,fr8
  03F4A8: 8B6C  bf     0x3F584
  03F4AA: D232  mov.l  @(0x3F574),r2  ; =0x000D2A14 [cal:MapSwitch_VehicleSpeedLow]
  03F4AC: F828  fmov.s @r2,fr8
  03F4AE: F8C5  fcmp/gt fr12,fr8
  03F4B0: 8968  bt     0x3F584
  03F4B2: D231  mov.l  @(0x3F578),r2  ; =0x000D2A18 [cal:MapSwitch_VehicleSpeedHigh]
  03F4B4: F828  fmov.s @r2,fr8
  03F4B6: F8C5  fcmp/gt fr12,fr8
  03F4B8: 8B64  bf     0x3F584
  03F4BA: C471  mov.b  @(113,GBR),r0
  03F4BC: 6203  mov    r0,r2
  03F4BE: E048  mov    #72,r0
  03F4C0: 662C  extu.b r2,r6
  03F4C2: 4615  cmp/pl  r6
  03F4C4: 8F5E  bf/s   0x3F584
  03F4C6: 0F26  mov.l  r2,@(r0,r15)
  03F4C8: 2558  tst r5,r5
  03F4CA: 8B5B  bf     0x3F584
  03F4CC: F7F8  fmov.s @r15,fr7
  03F4CE: D22B  mov.l  @(0x3F57C),r2  ; =0x000D2A1C [cal:MapSwitch_IATThreshold]
  03F4D0: F828  fmov.s @r2,fr8
  03F4D2: F875  fcmp/gt fr7,fr8
  03F4D4: 8956  bt     0x3F584
  03F4D6: D22A  mov.l  @(0x3F580),r2  ; =0x000D2A38 [cal:MapSwitch_SIDriveThreshold]
  03F4D8: A074  bra    0x3F5C4
  03F4DA: FF28  fmov.s @r2,fr15
  03F4DC: FFFF  .word  0xFFFF  ; FPU
  03F4DE: 7F08  add    #8,r15
  03F4E0: 000D  mov.w  @(r0,r0),r0
  03F4E2: 2ABC  cmp/str r11,r10
  03F4E4: 000B  rts
  03F4E6: E960  mov    #96,r9
  03F4E8: 000B  rts
  03F4EA: E608  mov    #8,r6
  03F4EC: 3980  cmp/eq r8,r9
  03F4EE: 0000  .word  0x0000
  03F4F0: 000D  mov.w  @(r0,r0),r0
  03F4F2: 2A40  mov.b  r4,@r10
  03F4F4: 000D  mov.w  @(r0,r0),r0
  03F4F6: 2A44  mov.b  r4,@-r10
  03F4F8: 000A  sts    MACH,r0
  03F4FA: DA84  mov.l  @(0x3F70C),r10  ; =0xD245F828
  03F4FC: 000B  rts
  03F4FE: E830  mov    #48,r8
  03F500: 000A  sts    MACH,r0
  03F502: DA98  mov.l  @(0x3F764),r10  ; =0x8919E2F0
  03F504: C1A0  mov.w  r0,@(320,GBR)  ; GBR+0x140
  03F506: 0000  .word  0x0000
  03F508: FFFF  .word  0xFFFF  ; FPU
  03F50A: 7E90  add    #-112,r14
  03F50C: FFFF  .word  0xFFFF  ; FPU
  03F50E: 6624  mov.b  @r2+,r6
  03F510: FFFF  .word  0xFFFF  ; FPU
  03F512: 62F8  swap.b r15,r2
  03F514: FFFF  .word  0xFFFF  ; FPU
  03F516: 65FC  extu.b r15,r5
  03F518: FFFF  .word  0xFFFF  ; FPU
  03F51A: 6350  mov.b  @r5,r3
  03F51C: FFFF  .word  0xFFFF  ; FPU
  03F51E: 7F68  add    #104,r15
  03F520: FFFF  .word  0xFFFF  ; FPU
  03F522: 8F16  bf/s   0x3F552
  03F524: FFFF  .word  0xFFFF  ; FPU
  03F526: 8F24  bf/s   0x3F572
  03F528: FFFF  .word  0xFFFF  ; FPU
  03F52A: 85D7  mov.w  @(14,r13),r0
  03F52C: FFFF  .word  0xFFFF  ; FPU
  03F52E: 5BE3  mov.l  @(12,r14),r11
  03F530: FFFF  .word  0xFFFF  ; FPU
  03F532: 65BF  exts.w r11,r5
  03F534: FFFF  .word  0xFFFF  ; FPU
  03F536: 7D18  add    #24,r13
  03F538: 0005  mov.w  r0,@(r0,r0)
  03F53A: EB32  mov    #50,r11
  03F53C: FFFF  .word  0xFFFF  ; FPU
  03F53E: 7FBC  add    #-68,r15
  03F540: 000D  mov.w  @(r0,r0),r0
  03F542: 2974  mov.b  r7,@-r9
  03F544: 000D  mov.w  @(r0,r0),r0
  03F546: 2975  mov.w  r7,@-r9
  03F548: FFFF  .word  0xFFFF  ; FPU
  03F54A: 7F0C  add    #12,r15
  03F54C: FFFF  .word  0xFFFF  ; FPU
  03F54E: 8258  .word  0x8258
  03F550: 3F00  cmp/eq r0,r15
  03F552: 0000  .word  0x0000
  03F554: 000D  mov.w  @(r0,r0),r0
  03F556: 2A34  mov.b  r3,@-r10
  03F558: FFFF  .word  0xFFFF  ; FPU
  03F55A: 81DC  mov.w  r0,@(24,r13)
  03F55C: 000B  rts
  03F55E: E970  mov    #112,r9
  03F560: FFFF  .word  0xFFFF  ; FPU
  03F562: 7F04  add    #4,r15
  03F564: 000D  mov.w  @(r0,r0),r0
  03F566: 2A08  tst r0,r10
  03F568: FFFF  .word  0xFFFF  ; FPU
  03F56A: 7F1C  add    #28,r15
  03F56C: 000D  mov.w  @(r0,r0),r0
  03F56E: 2A0C  cmp/str r0,r10
  03F570: 000D  mov.w  @(r0,r0),r0
  03F572: 2A10  mov.b  r1,@r10
  03F574: 000D  mov.w  @(r0,r0),r0
  03F576: 2A14  mov.b  r1,@-r10
  03F578: 000D  mov.w  @(r0,r0),r0
  03F57A: 2A18  tst r1,r10
  03F57C: 000D  mov.w  @(r0,r0),r0
  03F57E: 2A1C  cmp/str r1,r10
  03F580: 000D  mov.w  @(r0,r0),r0
  03F582: 2A38  tst r3,r10
  03F584: D298  mov.l  @(0x3F7E8),r2  ; =0x000D2A20 (ROM)
  03F586: F828  fmov.s @r2,fr8
  03F588: F8E5  fcmp/gt fr14,fr8
  03F58A: 8B24  bf     0x3F5D6
  03F58C: D297  mov.l  @(0x3F7EC),r2  ; =0x000D2A24 (ROM)
  03F58E: F828  fmov.s @r2,fr8
  03F590: F8F5  fcmp/gt fr15,fr8
  03F592: 8B20  bf     0x3F5D6
  03F594: D296  mov.l  @(0x3F7F0),r2  ; =0x000D2A28 (ROM)
  03F596: F828  fmov.s @r2,fr8
  03F598: F8C5  fcmp/gt fr12,fr8
  03F59A: 891C  bt     0x3F5D6
  03F59C: D295  mov.l  @(0x3F7F4),r2  ; =0x000D2A2C (ROM)
  03F59E: F828  fmov.s @r2,fr8
  03F5A0: F8C5  fcmp/gt fr12,fr8
  03F5A2: 8B18  bf     0x3F5D6
  03F5A4: C472  mov.b  @(114,GBR),r0
  03F5A6: 6203  mov    r0,r2
  03F5A8: E04C  mov    #76,r0
  03F5AA: 662C  extu.b r2,r6
  03F5AC: 4615  cmp/pl  r6
  03F5AE: 8F12  bf/s   0x3F5D6
  03F5B0: 0F26  mov.l  r2,@(r0,r15)
  03F5B2: 2448  tst r4,r4
  03F5B4: 8B0F  bf     0x3F5D6
  03F5B6: F7F8  fmov.s @r15,fr7
  03F5B8: D28F  mov.l  @(0x3F7F8),r2  ; =0x000D2A30 (ROM)
  03F5BA: F828  fmov.s @r2,fr8
  03F5BC: F875  fcmp/gt fr7,fr8
  03F5BE: 890A  bt     0x3F5D6
  03F5C0: D28E  mov.l  @(0x3F7FC),r2  ; =0x000D2A3C (ROM)
  03F5C2: FF28  fmov.s @r2,fr15
  03F5C4: D68E  mov.l  @(0x3F800),r6  ; =0xFFFF81DC (RAM)
  03F5C6: 1F64  mov.l  r6,@(16,r15)
  03F5C8: D58E  mov.l  @(0x3F804),r5  ; =0x000BE970 (ROM)
  03F5CA: 1F55  mov.l  r5,@(20,r15)
  03F5CC: FCFC  fmov   fr15,fr12
  03F5CE: FDFC  fmov   fr15,fr13
  03F5D0: E00C  mov    #12,r0
  03F5D2: A15C  bra    0x3F88E
  03F5D4: FFF7  fmov.s fr15,@(r0,r15)
  03F5D6: 609C  extu.b r9,r0
  03F5D8: 8801  cmp/eq #1,r0
  03F5DA: 8B19  bf     0x3F610
  03F5DC: D28A  mov.l  @(0x3F808),r2  ; =0xFFFF7F0C (RAM) [timing_blend_gbr]
  03F5DE: F828  fmov.s @r2,fr8
  03F5E0: D28A  mov.l  @(0x3F80C),r2  ; =0xFFFF8260 (RAM)
  03F5E2: F928  fmov.s @r2,fr9
  03F5E4: F890  fadd fr9,fr8
  03F5E6: D28A  mov.l  @(0x3F810),r2  ; =0xFFFF81F0 (RAM)
  03F5E8: F928  fmov.s @r2,fr9
  03F5EA: F890  fadd fr9,fr8
  03F5EC: D284  mov.l  @(0x3F800),r2  ; =0xFFFF81DC (RAM)
  03F5EE: 1F24  mov.l  r2,@(16,r15)
  03F5F0: F128  fmov.s @r2,fr1
  03F5F2: F180  fadd fr8,fr1
  03F5F4: E00C  mov    #12,r0
  03F5F6: FF17  fmov.s fr1,@(r0,r15)
  03F5F8: E004  mov    #4,r0
  03F5FA: FD26  fmov.s @(r0,r2),fr13
  03F5FC: FD80  fadd fr8,fr13
  03F5FE: E008  mov    #8,r0
  03F600: FC26  fmov.s @(r0,r2),fr12
  03F602: FC80  fadd fr8,fr12
  03F604: E00C  mov    #12,r0
  03F606: FF26  fmov.s @(r0,r2),fr15
  03F608: FF80  fadd fr8,fr15
  03F60A: D57E  mov.l  @(0x3F804),r5  ; =0x000BE970 (ROM)
  03F60C: A13F  bra    0x3F88E
  03F60E: 1F55  mov.l  r5,@(20,r15)
  03F610: D680  mov.l  @(0x3F814),r6  ; =0x000D2976 (ROM)
  03F612: 6060  mov.b  @r6,r0
  03F614: 885A  cmp/eq #90,r0
  03F616: 8B49  bf     0x3F6AC
  03F618: D27B  mov.l  @(0x3F808),r2  ; =0xFFFF7F0C (RAM) [timing_blend_gbr]
  03F61A: F628  fmov.s @r2,fr6
  03F61C: E004  mov    #4,r0
  03F61E: F9F6  fmov.s @(r0,r15),fr9
  03F620: F690  fadd fr9,fr6
  03F622: D27D  mov.l  @(0x3F818),r2  ; =0xFFFF7F6C (RAM)
  03F624: F928  fmov.s @r2,fr9
  03F626: F690  fadd fr9,fr6
  03F628: D27C  mov.l  @(0x3F81C),r2  ; =0xFFFF7F74 (RAM)
  03F62A: F928  fmov.s @r2,fr9
  03F62C: F690  fadd fr9,fr6
  03F62E: E008  mov    #8,r0
  03F630: F9F6  fmov.s @(r0,r15),fr9
  03F632: F691  fsub fr9,fr6
  03F634: D67A  mov.l  @(0x3F820),r6  ; =0xFFFF8000 (RAM)
  03F636: F968  fmov.s @r6,fr9
  03F638: F691  fsub fr9,fr6
  03F63A: D27A  mov.l  @(0x3F824),r2  ; =0xFFFF81EC (RAM)
  03F63C: F928  fmov.s @r2,fr9
  03F63E: F690  fadd fr9,fr6
  03F640: D279  mov.l  @(0x3F828),r2  ; =0xFFFF8028 (RAM)
  03F642: F928  fmov.s @r2,fr9
  03F644: F690  fadd fr9,fr6
  03F646: D279  mov.l  @(0x3F82C),r2  ; =0xFFFF8038 (RAM)
  03F648: F928  fmov.s @r2,fr9
  03F64A: F691  fsub fr9,fr6
  03F64C: D678  mov.l  @(0x3F830),r6  ; =0xFFFF803C (RAM)
  03F64E: F968  fmov.s @r6,fr9
  03F650: F690  fadd fr9,fr6
  03F652: D678  mov.l  @(0x3F834),r6  ; =0xFFFF805C (RAM)
  03F654: F968  fmov.s @r6,fr9
  03F656: F690  fadd fr9,fr6
  03F658: D277  mov.l  @(0x3F838),r2  ; =0xFFFF8084 (RAM)
  03F65A: F928  fmov.s @r2,fr9
  03F65C: F691  fsub fr9,fr6
  03F65E: D277  mov.l  @(0x3F83C),r2  ; =0xFFFF80B4 (RAM)
  03F660: F928  fmov.s @r2,fr9
  03F662: F690  fadd fr9,fr6
  03F664: D276  mov.l  @(0x3F840),r2  ; =0xFFFF80C4 (RAM)
  03F666: F928  fmov.s @r2,fr9
  03F668: F690  fadd fr9,fr6
  03F66A: D276  mov.l  @(0x3F844),r2  ; =0xFFFF80E8 (RAM)
  03F66C: F928  fmov.s @r2,fr9
  03F66E: F691  fsub fr9,fr6
  03F670: D275  mov.l  @(0x3F848),r2  ; =0xFFFF80F0 (RAM)
  03F672: F828  fmov.s @r2,fr8
  03F674: F680  fadd fr8,fr6
  03F676: D575  mov.l  @(0x3F84C),r5  ; =0xFFFF8088 (RAM)
  03F678: F958  fmov.s @r5,fr9
  03F67A: F960  fadd fr6,fr9
  03F67C: D260  mov.l  @(0x3F800),r2  ; =0xFFFF81DC (RAM)
  03F67E: 1F24  mov.l  r2,@(16,r15)
  03F680: F828  fmov.s @r2,fr8
  03F682: F980  fadd fr8,fr9
  03F684: E00C  mov    #12,r0
  03F686: FF97  fmov.s fr9,@(r0,r15)
  03F688: E004  mov    #4,r0
  03F68A: FD56  fmov.s @(r0,r5),fr13
  03F68C: FD60  fadd fr6,fr13
  03F68E: F926  fmov.s @(r0,r2),fr9
  03F690: FD90  fadd fr9,fr13
  03F692: E008  mov    #8,r0
  03F694: FC56  fmov.s @(r0,r5),fr12
  03F696: FC60  fadd fr6,fr12
  03F698: F926  fmov.s @(r0,r2),fr9
  03F69A: FC90  fadd fr9,fr12
  03F69C: E00C  mov    #12,r0
  03F69E: FF56  fmov.s @(r0,r5),fr15
  03F6A0: FF60  fadd fr6,fr15
  03F6A2: F826  fmov.s @(r0,r2),fr8
  03F6A4: FF80  fadd fr8,fr15
  03F6A6: D557  mov.l  @(0x3F804),r5  ; =0x000BE970 (ROM)
  03F6A8: A05A  bra    0x3F760
  03F6AA: 1F55  mov.l  r5,@(20,r15)
  03F6AC: D255  mov.l  @(0x3F804),r2  ; =0x000BE970 (ROM)
  03F6AE: 1F25  mov.l  r2,@(20,r15)
  03F6B0: D65F  mov.l  @(0x3F830),r6  ; =0xFFFF803C (RAM)
  03F6B2: F568  fmov.s @r6,fr5
  03F6B4: D65F  mov.l  @(0x3F834),r6  ; =0xFFFF805C (RAM)
  03F6B6: 420B  jsr    @r2
  03F6B8: F468  fmov.s @r6,fr4
  03F6BA: D25B  mov.l  @(0x3F828),r2  ; =0xFFFF8028 (RAM)
  03F6BC: F528  fmov.s @r2,fr5
  03F6BE: D251  mov.l  @(0x3F804),r2  ; =0x000BE970 (ROM)
  03F6C0: 420B  jsr    @r2
  03F6C2: F40C  fmov   fr0,fr4
  03F6C4: D25E  mov.l  @(0x3F840),r2  ; =0xFFFF80C4 (RAM)
  03F6C6: F528  fmov.s @r2,fr5
  03F6C8: D24E  mov.l  @(0x3F804),r2  ; =0x000BE970 (ROM)
  03F6CA: 420B  jsr    @r2
  03F6CC: F40C  fmov   fr0,fr4
  03F6CE: D252  mov.l  @(0x3F818),r2  ; =0xFFFF7F6C (RAM)
  03F6D0: F528  fmov.s @r2,fr5
  03F6D2: D24C  mov.l  @(0x3F804),r2  ; =0x000BE970 (ROM)
  03F6D4: 420B  jsr    @r2
  03F6D6: F40C  fmov   fr0,fr4
  03F6D8: D25B  mov.l  @(0x3F848),r2  ; =0xFFFF80F0 (RAM)
  03F6DA: F528  fmov.s @r2,fr5
  03F6DC: D249  mov.l  @(0x3F804),r2  ; =0x000BE970 (ROM)
  03F6DE: 420B  jsr    @r2
  03F6E0: F40C  fmov   fr0,fr4
  03F6E2: E018  mov    #24,r0
  03F6E4: FF07  fmov.s fr0,@(r0,r15)
  03F6E6: D248  mov.l  @(0x3F808),r2  ; =0xFFFF7F0C (RAM) [timing_blend_gbr]
  03F6E8: F628  fmov.s @r2,fr6
  03F6EA: E004  mov    #4,r0
  03F6EC: F8F6  fmov.s @(r0,r15),fr8
  03F6EE: F680  fadd fr8,fr6
  03F6F0: D24A  mov.l  @(0x3F81C),r2  ; =0xFFFF7F74 (RAM)
  03F6F2: F828  fmov.s @r2,fr8
  03F6F4: F680  fadd fr8,fr6
  03F6F6: E01C  mov    #28,r0
  03F6F8: FF67  fmov.s fr6,@(r0,r15)
  03F6FA: D255  mov.l  @(0x3F850),r2  ; =0x000BE960 (ROM)
  03F6FC: E008  mov    #8,r0
  03F6FE: F4F6  fmov.s @(r0,r15),fr4
  03F700: D647  mov.l  @(0x3F820),r6  ; =0xFFFF8000 (RAM)
  03F702: 420B  jsr    @r2
  03F704: F568  fmov.s @r6,fr5
  03F706: E01C  mov    #28,r0
  03F708: F6F6  fmov.s @(r0,r15),fr6
  03F70A: F601  fsub fr0,fr6
  03F70C: D245  mov.l  @(0x3F824),r2  ; =0xFFFF81EC (RAM)
  03F70E: F828  fmov.s @r2,fr8
  03F710: F680  fadd fr8,fr6
  03F712: D246  mov.l  @(0x3F82C),r2  ; =0xFFFF8038 (RAM)
  03F714: F828  fmov.s @r2,fr8
  03F716: F681  fsub fr8,fr6
  03F718: D247  mov.l  @(0x3F838),r2  ; =0xFFFF8084 (RAM)
  03F71A: F828  fmov.s @r2,fr8
  03F71C: F681  fsub fr8,fr6
  03F71E: D247  mov.l  @(0x3F83C),r2  ; =0xFFFF80B4 (RAM)
  03F720: F828  fmov.s @r2,fr8
  03F722: F680  fadd fr8,fr6
  03F724: E018  mov    #24,r0
  03F726: F8F6  fmov.s @(r0,r15),fr8
  03F728: F680  fadd fr8,fr6
  03F72A: D246  mov.l  @(0x3F844),r2  ; =0xFFFF80E8 (RAM)
  03F72C: F828  fmov.s @r2,fr8
  03F72E: F681  fsub fr8,fr6
  03F730: D233  mov.l  @(0x3F800),r2  ; =0xFFFF81DC (RAM)
  03F732: 1F24  mov.l  r2,@(16,r15)
  03F734: F928  fmov.s @r2,fr9
  03F736: F960  fadd fr6,fr9
  03F738: D444  mov.l  @(0x3F84C),r4  ; =0xFFFF8088 (RAM)
  03F73A: F848  fmov.s @r4,fr8
  03F73C: F980  fadd fr8,fr9
  03F73E: E00C  mov    #12,r0
  03F740: FF97  fmov.s fr9,@(r0,r15)
  03F742: E004  mov    #4,r0
  03F744: FD26  fmov.s @(r0,r2),fr13
  03F746: FD60  fadd fr6,fr13
  03F748: F946  fmov.s @(r0,r4),fr9
  03F74A: FD90  fadd fr9,fr13
  03F74C: E008  mov    #8,r0
  03F74E: FC26  fmov.s @(r0,r2),fr12
  03F750: FC60  fadd fr6,fr12
  03F752: F946  fmov.s @(r0,r4),fr9
  03F754: FC90  fadd fr9,fr12
  03F756: E00C  mov    #12,r0
  03F758: FF26  fmov.s @(r0,r2),fr15
  03F75A: FF60  fadd fr6,fr15
  03F75C: F946  fmov.s @(r0,r4),fr9
  03F75E: FF90  fadd fr9,fr15
  03F760: 60E3  mov    r14,r0
  03F762: 8802  cmp/eq #2,r0
  03F764: 8919  bt     0x3F79A
  03F766: E2F0  mov    #-16,r2
  03F768: 622C  extu.b r2,r2
  03F76A: 3E23  cmp/ge r2,r14
  03F76C: 8915  bt     0x3F79A
  03F76E: E00C  mov    #12,r0
  03F770: FEF6  fmov.s @(r0,r15),fr14
  03F772: D638  mov.l  @(0x3F854),r6  ; =0xFFFF80B8 (RAM)
  03F774: F968  fmov.s @r6,fr9
  03F776: FE90  fadd fr9,fr14
  03F778: D237  mov.l  @(0x3F858),r2  ; =0xFFFF80DC (RAM)
  03F77A: F928  fmov.s @r2,fr9
  03F77C: FE90  fadd fr9,fr14
  03F77E: FFE7  fmov.s fr14,@(r0,r15)
  03F780: F968  fmov.s @r6,fr9
  03F782: FD90  fadd fr9,fr13
  03F784: F928  fmov.s @r2,fr9
  03F786: FD90  fadd fr9,fr13
  03F788: F968  fmov.s @r6,fr9
  03F78A: FC90  fadd fr9,fr12
  03F78C: F928  fmov.s @r2,fr9
  03F78E: FC90  fadd fr9,fr12
  03F790: F968  fmov.s @r6,fr9
  03F792: FF90  fadd fr9,fr15
  03F794: F928  fmov.s @r2,fr9
  03F796: A07A  bra    0x3F88E
  03F798: FF90  fadd fr9,fr15
  03F79A: 60E3  mov    r14,r0
  03F79C: 8802  cmp/eq #2,r0
  03F79E: 8B03  bf     0x3F7A8
  03F7A0: DC2E  mov.l  @(0x3F85C),r12  ; =0xFFFF7F04 (RAM)
  03F7A2: E0DC  mov    #-36,r0
  03F7A4: A06C  bra    0x3F880
  03F7A6: F0C6  fmov.s @(r0,r12),fr0
  03F7A8: D42D  mov.l  @(0x3F860),r4  ; =0x000AB69C (ROM)
  03F7AA: D22E  mov.l  @(0x3F864),r2  ; =0x000BE830 [func:table_desc_1d_float]
  03F7AC: 420B  jsr    @r2
  03F7AE: F4F8  fmov.s @r15,fr4
  03F7B0: E2F1  mov    #-15,r2
  03F7B2: 622C  extu.b r2,r2
  03F7B4: 3E20  cmp/eq r2,r14
  03F7B6: 8B01  bf     0x3F7BC
  03F7B8: A061  bra    0x3F87E
  03F7BA: F59D  fldi1  fr5
  03F7BC: E2F2  mov    #-14,r2
  03F7BE: 622C  extu.b r2,r2
  03F7C0: 3E20  cmp/eq r2,r14
  03F7C2: 8B02  bf     0x3F7CA
  03F7C4: F59D  fldi1  fr5
  03F7C6: A05A  bra    0x3F87E
  03F7C8: F550  fadd fr5,fr5
  03F7CA: E2F3  mov    #-13,r2
  03F7CC: 622C  extu.b r2,r2
  03F7CE: 3E20  cmp/eq r2,r14
  03F7D0: 8B02  bf     0x3F7D8
  03F7D2: C725  mova   @(0x3F868),r0
  03F7D4: A053  bra    0x3F87E
  03F7D6: F508  fmov.s @r0,fr5
  03F7D8: E2F4  mov    #-12,r2
  03F7DA: 622C  extu.b r2,r2
  03F7DC: 3E20  cmp/eq r2,r14
  03F7DE: 8B47  bf     0x3F870
  03F7E0: C722  mova   @(0x3F86C),r0
  03F7E2: A04C  bra    0x3F87E
  03F7E4: F508  fmov.s @r0,fr5
  03F7E6: 0000  .word  0x0000
  03F7E8: 000D  mov.w  @(r0,r0),r0
  03F7EA: 2A20  mov.b  r2,@r10
  03F7EC: 000D  mov.w  @(r0,r0),r0
  03F7EE: 2A24  mov.b  r2,@-r10
  03F7F0: 000D  mov.w  @(r0,r0),r0
  03F7F2: 2A28  tst r2,r10
  03F7F4: 000D  mov.w  @(r0,r0),r0
  03F7F6: 2A2C  cmp/str r2,r10
  03F7F8: 000D  mov.w  @(r0,r0),r0
  03F7FA: 2A30  mov.b  r3,@r10
  03F7FC: 000D  mov.w  @(r0,r0),r0
  03F7FE: 2A3C  cmp/str r3,r10
  03F800: FFFF  .word  0xFFFF  ; FPU
  03F802: 81DC  mov.w  r0,@(24,r13)
  03F804: 000B  rts
  03F806: E970  mov    #112,r9
  03F808: FFFF  .word  0xFFFF  ; FPU
  03F80A: 7F0C  add    #12,r15
  03F80C: FFFF  .word  0xFFFF  ; FPU
  03F80E: 8260  .word  0x8260
  03F810: FFFF  .word  0xFFFF  ; FPU
  03F812: 81F0  mov.w  r0,@(0,r15)
  03F814: 000D  mov.w  @(r0,r0),r0
  03F816: 2976  mov.l  r7,@-r9
  03F818: FFFF  .word  0xFFFF  ; FPU
  03F81A: 7F6C  add    #108,r15
  03F81C: FFFF  .word  0xFFFF  ; FPU
  03F81E: 7F74  add    #116,r15
  03F820: FFFF  .word  0xFFFF  ; FPU
  03F822: 8000  mov.b  r0,@(0,r0)
  03F824: FFFF  .word  0xFFFF  ; FPU
  03F826: 81EC  mov.w  r0,@(24,r14)
  03F828: FFFF  .word  0xFFFF  ; FPU
  03F82A: 8028  mov.b  r0,@(8,r2)
  03F82C: FFFF  .word  0xFFFF  ; FPU
  03F82E: 8038  mov.b  r0,@(8,r3)
  03F830: FFFF  .word  0xFFFF  ; FPU
  03F832: 803C  mov.b  r0,@(12,r3)
  03F834: FFFF  .word  0xFFFF  ; FPU
  03F836: 805C  mov.b  r0,@(12,r5)
  03F838: FFFF  .word  0xFFFF  ; FPU
  03F83A: 8084  mov.b  r0,@(4,r8)
  03F83C: FFFF  .word  0xFFFF  ; FPU
  03F83E: 80B4  mov.b  r0,@(4,r11)
  03F840: FFFF  .word  0xFFFF  ; FPU
  03F842: 80C4  mov.b  r0,@(4,r12)
  03F844: FFFF  .word  0xFFFF  ; FPU
  03F846: 80E8  mov.b  r0,@(8,r14)
  03F848: FFFF  .word  0xFFFF  ; FPU
  03F84A: 80F0  mov.b  r0,@(0,r15)
  03F84C: FFFF  .word  0xFFFF  ; FPU
  03F84E: 8088  mov.b  r0,@(8,r8)
  03F850: 000B  rts
  03F852: E960  mov    #96,r9
  03F854: FFFF  .word  0xFFFF  ; FPU
  03F856: 80B8  mov.b  r0,@(8,r11)
  03F858: FFFF  .word  0xFFFF  ; FPU
  03F85A: 80DC  mov.b  r0,@(12,r13)
  03F85C: FFFF  .word  0xFFFF  ; FPU
  03F85E: 7F04  add    #4,r15
  03F860: 000A  sts    MACH,r0
  03F862: B69C  bsr    0x4059E
  03F864: 000B  rts
  03F866: E830  mov    #48,r8
  03F868: 4040  .word  0x4040
  03F86A: 0000  .word  0x0000
  03F86C: 4080  .word  0x4080
  03F86E: 0000  .word  0x0000
  03F870: E2F5  mov    #-11,r2
  03F872: 622C  extu.b r2,r2
  03F874: 3E20  cmp/eq r2,r14
  03F876: 8F02  bf/s   0x3F87E
  03F878: F58D  fldi0  fr5
  03F87A: C7BB  mova   @(0x3FB68),r0
  03F87C: F508  fmov.s @r0,fr5
  03F87E: F050  fadd fr5,fr0
  03F880: E00C  mov    #12,r0
  03F882: FEF6  fmov.s @(r0,r15),fr14
  03F884: FE00  fadd fr0,fr14
  03F886: FFE7  fmov.s fr14,@(r0,r15)
  03F888: FD00  fadd fr0,fr13
  03F88A: FC00  fadd fr0,fr12
  03F88C: FF00  fadd fr0,fr15
  03F88E: D6B7  mov.l  @(0x3FB6C),r6  ; =0x000D2976 (ROM)
  03F890: 6060  mov.b  @r6,r0
  03F892: 885A  cmp/eq #90,r0
  03F894: 8B0B  bf     0x3F8AE
  03F896: D2B6  mov.l  @(0x3FB70),r2  ; =0xFFFF7F0C (RAM) [timing_blend_gbr]
  03F898: F028  fmov.s @r2,fr0
  03F89A: E004  mov    #4,r0
  03F89C: F9F6  fmov.s @(r0,r15),fr9
  03F89E: F090  fadd fr9,fr0
  03F8A0: D2B4  mov.l  @(0x3FB74),r2  ; =0xFFFF7F6C (RAM)
  03F8A2: F928  fmov.s @r2,fr9
  03F8A4: F090  fadd fr9,fr0
  03F8A6: E008  mov    #8,r0
  03F8A8: F9F6  fmov.s @(r0,r15),fr9
  03F8AA: A00E  bra    0x3F8CA
  03F8AC: F091  fsub fr9,fr0
  03F8AE: 55F5  mov.l  @(20,r15),r5
  03F8B0: F58D  fldi0  fr5
  03F8B2: D2B0  mov.l  @(0x3FB74),r2  ; =0xFFFF7F6C (RAM)
  03F8B4: 450B  jsr    @r5
  03F8B6: F428  fmov.s @r2,fr4
  03F8B8: D2AD  mov.l  @(0x3FB70),r2  ; =0xFFFF7F0C (RAM) [timing_blend_gbr]
  03F8BA: F828  fmov.s @r2,fr8
  03F8BC: E004  mov    #4,r0
  03F8BE: F9F6  fmov.s @(r0,r15),fr9
  03F8C0: F890  fadd fr9,fr8
  03F8C2: F080  fadd fr8,fr0
  03F8C4: E008  mov    #8,r0
  03F8C6: F8F6  fmov.s @(r0,r15),fr8
  03F8C8: F081  fsub fr8,fr0
  03F8CA: 56F4  mov.l  @(16,r15),r6
  03F8CC: F868  fmov.s @r6,fr8
  03F8CE: F800  fadd fr0,fr8
  03F8D0: E020  mov    #32,r0
  03F8D2: FF87  fmov.s fr8,@(r0,r15)
  03F8D4: E004  mov    #4,r0
  03F8D6: F966  fmov.s @(r0,r6),fr9
  03F8D8: F900  fadd fr0,fr9
  03F8DA: E024  mov    #36,r0
  03F8DC: FF97  fmov.s fr9,@(r0,r15)
  03F8DE: E008  mov    #8,r0
  03F8E0: F866  fmov.s @(r0,r6),fr8
  03F8E2: F800  fadd fr0,fr8
  03F8E4: E028  mov    #40,r0
  03F8E6: FF87  fmov.s fr8,@(r0,r15)
  03F8E8: E00C  mov    #12,r0
  03F8EA: F866  fmov.s @(r0,r6),fr8
  03F8EC: F800  fadd fr0,fr8
  03F8EE: E02C  mov    #44,r0
  03F8F0: FF87  fmov.s fr8,@(r0,r15)
  03F8F2: E00C  mov    #12,r0
  03F8F4: FEF6  fmov.s @(r0,r15),fr14
  03F8F6: 55F5  mov.l  @(20,r15),r5
  03F8F8: DC9F  mov.l  @(0x3FB78),r12  ; =0xFFFF7F04 (RAM)
  03F8FA: E0C0  mov    #-64,r0
  03F8FC: F5C6  fmov.s @(r0,r12),fr5
  03F8FE: E0BC  mov    #-68,r0
  03F900: 450B  jsr    @r5
  03F902: F4C6  fmov.s @(r0,r12),fr4
  03F904: FE01  fsub fr0,fr14
  03F906: E0AC  mov    #-84,r0
  03F908: FCE7  fmov.s fr14,@(r0,r12)
  03F90A: FEDC  fmov   fr13,fr14
  03F90C: 55F5  mov.l  @(20,r15),r5
  03F90E: E0C0  mov    #-64,r0
  03F910: F5C6  fmov.s @(r0,r12),fr5
  03F912: E0BC  mov    #-68,r0
  03F914: 450B  jsr    @r5
  03F916: F4C6  fmov.s @(r0,r12),fr4
  03F918: FE01  fsub fr0,fr14
  03F91A: E0B0  mov    #-80,r0
  03F91C: FCE7  fmov.s fr14,@(r0,r12)
  03F91E: FECC  fmov   fr12,fr14
  03F920: 55F5  mov.l  @(20,r15),r5
  03F922: E0C0  mov    #-64,r0
  03F924: F5C6  fmov.s @(r0,r12),fr5
  03F926: E0BC  mov    #-68,r0
  03F928: 450B  jsr    @r5
  03F92A: F4C6  fmov.s @(r0,r12),fr4
  03F92C: FE01  fsub fr0,fr14
  03F92E: E0B4  mov    #-76,r0
  03F930: FCE7  fmov.s fr14,@(r0,r12)
  03F932: FEFC  fmov   fr15,fr14
  03F934: 55F5  mov.l  @(20,r15),r5
  03F936: E0C0  mov    #-64,r0
  03F938: F5C6  fmov.s @(r0,r12),fr5
  03F93A: E0BC  mov    #-68,r0
  03F93C: 450B  jsr    @r5
  03F93E: F4C6  fmov.s @(r0,r12),fr4
  03F940: FE01  fsub fr0,fr14
  03F942: E0B8  mov    #-72,r0
  03F944: FCE7  fmov.s fr14,@(r0,r12)
  03F946: DE8D  mov.l  @(0x3FB7C),r14  ; =0x000BE56C (ROM)
  03F948: E00C  mov    #12,r0
  03F94A: F4F6  fmov.s @(r0,r15),fr4
  03F94C: E0BC  mov    #-68,r0
  03F94E: F6C6  fmov.s @(r0,r12),fr6
  03F950: C78B  mova   @(0x3FB80),r0
  03F952: F708  fmov.s @r0,fr7
  03F954: 4E0B  jsr    @r14
  03F956: F57C  fmov   fr7,fr5
  03F958: FE0C  fmov   fr0,fr14
  03F95A: F4DC  fmov   fr13,fr4
  03F95C: E0BC  mov    #-68,r0
  03F95E: F6C6  fmov.s @(r0,r12),fr6
  03F960: C787  mova   @(0x3FB80),r0
  03F962: F708  fmov.s @r0,fr7
  03F964: 4E0B  jsr    @r14
  03F966: F57C  fmov   fr7,fr5
  03F968: FD0C  fmov   fr0,fr13
  03F96A: F4CC  fmov   fr12,fr4
  03F96C: E0BC  mov    #-68,r0
  03F96E: F6C6  fmov.s @(r0,r12),fr6
  03F970: C783  mova   @(0x3FB80),r0
  03F972: F708  fmov.s @r0,fr7
  03F974: 4E0B  jsr    @r14
  03F976: F57C  fmov   fr7,fr5
  03F978: E030  mov    #48,r0
  03F97A: FF07  fmov.s fr0,@(r0,r15)
  03F97C: F4FC  fmov   fr15,fr4
  03F97E: E0BC  mov    #-68,r0
  03F980: F6C6  fmov.s @(r0,r12),fr6
  03F982: C77F  mova   @(0x3FB80),r0
  03F984: F708  fmov.s @r0,fr7
  03F986: 4E0B  jsr    @r14
  03F988: F57C  fmov   fr7,fr5
  03F98A: FF0C  fmov   fr0,fr15
  03F98C: E0C0  mov    #-64,r0
  03F98E: F6C6  fmov.s @(r0,r12),fr6
  03F990: C77B  mova   @(0x3FB80),r0
  03F992: F708  fmov.s @r0,fr7
  03F994: F57C  fmov   fr7,fr5
  03F996: 4E0B  jsr    @r14
  03F998: F4EC  fmov   fr14,fr4
  03F99A: FC0C  fmov   fr0,fr12
  03F99C: E0C0  mov    #-64,r0
  03F99E: F6C6  fmov.s @(r0,r12),fr6
  03F9A0: C777  mova   @(0x3FB80),r0
  03F9A2: F708  fmov.s @r0,fr7
  03F9A4: F57C  fmov   fr7,fr5
  03F9A6: 4E0B  jsr    @r14
  03F9A8: F4DC  fmov   fr13,fr4
  03F9AA: E034  mov    #52,r0
  03F9AC: FF07  fmov.s fr0,@(r0,r15)
  03F9AE: E0C0  mov    #-64,r0
  03F9B0: F6C6  fmov.s @(r0,r12),fr6
  03F9B2: C773  mova   @(0x3FB80),r0
  03F9B4: F708  fmov.s @r0,fr7
  03F9B6: F57C  fmov   fr7,fr5
  03F9B8: E030  mov    #48,r0
  03F9BA: 4E0B  jsr    @r14
  03F9BC: F4F6  fmov.s @(r0,r15),fr4
  03F9BE: FD0C  fmov   fr0,fr13
  03F9C0: E0C0  mov    #-64,r0
  03F9C2: F6C6  fmov.s @(r0,r12),fr6
  03F9C4: C76E  mova   @(0x3FB80),r0
  03F9C6: F708  fmov.s @r0,fr7
  03F9C8: F57C  fmov   fr7,fr5
  03F9CA: 4E0B  jsr    @r14
  03F9CC: F4FC  fmov   fr15,fr4
  03F9CE: E0C4  mov    #-60,r0
  03F9D0: F8C6  fmov.s @(r0,r12),fr8
  03F9D2: FC81  fsub fr8,fr12
  03F9D4: F8C6  fmov.s @(r0,r12),fr8
  03F9D6: E034  mov    #52,r0
  03F9D8: F9F6  fmov.s @(r0,r15),fr9
  03F9DA: F981  fsub fr8,fr9
  03F9DC: FF97  fmov.s fr9,@(r0,r15)
  03F9DE: E0C4  mov    #-60,r0
  03F9E0: F8C6  fmov.s @(r0,r12),fr8
  03F9E2: FD81  fsub fr8,fr13
  03F9E4: F8C6  fmov.s @(r0,r12),fr8
  03F9E6: F081  fsub fr8,fr0
  03F9E8: FF0C  fmov   fr0,fr15
  03F9EA: C766  mova   @(0x3FB84),r0
  03F9EC: FE08  fmov.s @r0,fr14
  03F9EE: F6EC  fmov   fr14,fr6
  03F9F0: E0E0  mov    #-32,r0
  03F9F2: F5C6  fmov.s @(r0,r12),fr5
  03F9F4: 4E0B  jsr    @r14
  03F9F6: F4CC  fmov   fr12,fr4
  03F9F8: E08C  mov    #-116,r0
  03F9FA: FC07  fmov.s fr0,@(r0,r12)
  03F9FC: F6EC  fmov   fr14,fr6
  03F9FE: E0E0  mov    #-32,r0
  03FA00: F5C6  fmov.s @(r0,r12),fr5
  03FA02: E034  mov    #52,r0
  03FA04: 4E0B  jsr    @r14
  03FA06: F4F6  fmov.s @(r0,r15),fr4
  03FA08: E090  mov    #-112,r0
  03FA0A: FC07  fmov.s fr0,@(r0,r12)
  03FA0C: F6EC  fmov   fr14,fr6
  03FA0E: E0E0  mov    #-32,r0
  03FA10: F5C6  fmov.s @(r0,r12),fr5
  03FA12: 4E0B  jsr    @r14
  03FA14: F4DC  fmov   fr13,fr4
  03FA16: E094  mov    #-108,r0
  03FA18: FC07  fmov.s fr0,@(r0,r12)
  03FA1A: F6EC  fmov   fr14,fr6
  03FA1C: E0E0  mov    #-32,r0
  03FA1E: F5C6  fmov.s @(r0,r12),fr5
  03FA20: 4E0B  jsr    @r14
  03FA22: F4FC  fmov   fr15,fr4
  03FA24: E098  mov    #-104,r0
  03FA26: FC07  fmov.s fr0,@(r0,r12)
  03FA28: E020  mov    #32,r0
  03FA2A: F4F6  fmov.s @(r0,r15),fr4
  03FA2C: C754  mova   @(0x3FB80),r0
  03FA2E: F708  fmov.s @r0,fr7
  03FA30: F57C  fmov   fr7,fr5
  03FA32: 4E0B  jsr    @r14
  03FA34: F6EC  fmov   fr14,fr6
  03FA36: E09C  mov    #-100,r0
  03FA38: FC07  fmov.s fr0,@(r0,r12)
  03FA3A: E024  mov    #36,r0
  03FA3C: F4F6  fmov.s @(r0,r15),fr4
  03FA3E: C750  mova   @(0x3FB80),r0
  03FA40: F708  fmov.s @r0,fr7
  03FA42: F57C  fmov   fr7,fr5
  03FA44: 4E0B  jsr    @r14
  03FA46: F6EC  fmov   fr14,fr6
  03FA48: E0A0  mov    #-96,r0
  03FA4A: FC07  fmov.s fr0,@(r0,r12)
  03FA4C: E028  mov    #40,r0
  03FA4E: F4F6  fmov.s @(r0,r15),fr4
  03FA50: C74B  mova   @(0x3FB80),r0
  03FA52: F708  fmov.s @r0,fr7
  03FA54: F57C  fmov   fr7,fr5
  03FA56: 4E0B  jsr    @r14
  03FA58: F6EC  fmov   fr14,fr6
  03FA5A: E0A4  mov    #-92,r0
  03FA5C: FC07  fmov.s fr0,@(r0,r12)
  03FA5E: E02C  mov    #44,r0
  03FA60: F4F6  fmov.s @(r0,r15),fr4
  03FA62: C747  mova   @(0x3FB80),r0
  03FA64: F708  fmov.s @r0,fr7
  03FA66: F57C  fmov   fr7,fr5
  03FA68: 4E0B  jsr    @r14
  03FA6A: F6EC  fmov   fr14,fr6
  03FA6C: E0A8  mov    #-88,r0
  03FA6E: FC07  fmov.s fr0,@(r0,r12)
  03FA70: 7F50  add    #80,r15
  03FA72: 4F17  ldc.l  @r15+,GBR
  03FA74: FFF9  fmov.s @r15+,fr15
  03FA76: FEF9  fmov.s @r15+,fr14
  03FA78: FDF9  fmov.s @r15+,fr13
  03FA7A: FCF9  fmov.s @r15+,fr12
  03FA7C: 4F26  lds.l  @r15+,PR
  03FA7E: 6EF6  mov.l  @r15+,r14
  03FA80: 6DF6  mov.l  @r15+,r13
  03FA82: 6CF6  mov.l  @r15+,r12
  03FA84: 6BF6  mov.l  @r15+,r11
  03FA86: 6AF6  mov.l  @r15+,r10
  03FA88: 000B  rts
  03FA8A: 69F6  mov.l  @r15+,r9
  03FA8C: 4F22  sts.l  PR,@-r15
  03FA8E: 4F13  .word  0x4F13
  03FA90: D03D  mov.l  @(0x3FB88),r0  ; =0xFFFF7EC0 (RAM)
  03FA92: 401E  ldc    r0,GBR
  03FA94: D23D  mov.l  @(0x3FB8C),r2  ; =0xFFFF6350 (RAM) [ect_current]
  03FA96: F428  fmov.s @r2,fr4
  03FA98: C73A  mova   @(0x3FB84),r0
  03FA9A: F908  fmov.s @r0,fr9
  03FA9C: D53C  mov.l  @(0x3FB90),r5  ; =0xFFFF7EFC (RAM)
  03FA9E: E0D0  mov    #-48,r0
  03FAA0: F597  fmov.s fr9,@(r0,r5)
  03FAA2: E0C4  mov    #-60,r0
  03FAA4: F597  fmov.s fr9,@(r0,r5)
  03FAA6: E0C8  mov    #-56,r0
  03FAA8: F597  fmov.s fr9,@(r0,r5)
  03FAAA: C73A  mova   @(0x3FB94),r0
  03FAAC: F808  fmov.s @r0,fr8
  03FAAE: E0E0  mov    #-32,r0
  03FAB0: F587  fmov.s fr8,@(r0,r5)
  03FAB2: E0FF  mov    #-1,r0
  03FAB4: C11E  mov.w  r0,@(60,GBR)  ; GBR+0x3C
  03FAB6: C11F  mov.w  r0,@(62,GBR)  ; GBR+0x3E
  03FAB8: D437  mov.l  @(0x3FB98),r4  ; =0x000ADA98 (ROM)
  03FABA: D238  mov.l  @(0x3FB9C),r2  ; =0x000BE830 [func:table_desc_1d_float]
  03FABC: 420B  jsr    @r2
  03FABE: C028  mov.b  r0,@(40,GBR)
  03FAC0: D533  mov.l  @(0x3FB90),r5  ; =0xFFFF7EFC (RAM)
  03FAC2: E0E8  mov    #-24,r0
  03FAC4: F507  fmov.s fr0,@(r0,r5)
  03FAC6: 4F17  ldc.l  @r15+,GBR
  03FAC8: 4F26  lds.l  @r15+,PR
  03FACA: 000B  rts
  03FACC: 0009  nop
  03FACE: 2FC6  mov.l  r12,@-r15
  03FAD0: 2FD6  mov.l  r13,@-r15
  03FAD2: 2FE6  mov.l  r14,@-r15
  03FAD4: 4F22  sts.l  PR,@-r15
  03FAD6: FFEB  fmov.s fr14,@-r15
  03FAD8: 4F13  .word  0x4F13
  03FADA: D02B  mov.l  @(0x3FB88),r0  ; =0xFFFF7EC0 (RAM)
  03FADC: 401E  ldc    r0,GBR
  03FADE: 7FF4  add    #-12,r15
  03FAE0: D22A  mov.l  @(0x3FB8C),r2  ; =0xFFFF6350 (RAM) [ect_current]
  03FAE2: FE28  fmov.s @r2,fr14
  03FAE4: D22E  mov.l  @(0x3FBA0),r2  ; =0x00022F92 (ROM)
  03FAE6: 420B  jsr    @r2
  03FAE8: 0009  nop
  03FAEA: 2F00  mov.b  r0,@r15
  03FAEC: D62D  mov.l  @(0x3FBA4),r6  ; =0xFFFF5BE3 (RAM)
  03FAEE: 6E60  mov.b  @r6,r14
  03FAF0: D62D  mov.l  @(0x3FBA8),r6  ; =0xFFFF65BF (RAM)
  03FAF2: 6D60  mov.b  @r6,r13
  03FAF4: D62D  mov.l  @(0x3FBAC),r6  ; =0xFFFF85D7 (RAM)
  03FAF6: 6C60  mov.b  @r6,r12
  03FAF8: D62D  mov.l  @(0x3FBB0),r6  ; =0x0003AB20 (ROM)
  03FAFA: 460B  jsr    @r6
  03FAFC: 0009  nop
  03FAFE: 80F4  mov.b  r0,@(4,r15)
  03FB00: 60F0  mov.b  @r15,r0
  03FB02: 8801  cmp/eq #1,r0
  03FB04: 8B27  bf     0x3FB56
  03FB06: 60E3  mov    r14,r0
  03FB08: C043  mov.b  r0,@(67,GBR)
  03FB0A: E000  mov    #0,r0
  03FB0C: C041  mov.b  r0,@(65,GBR)
  03FB0E: 60D3  mov    r13,r0
  03FB10: C044  mov.b  r0,@(68,GBR)
  03FB12: E000  mov    #0,r0
  03FB14: C042  mov.b  r0,@(66,GBR)
  03FB16: C048  mov.b  r0,@(72,GBR)
  03FB18: D226  mov.l  @(0x3FBB4),r2  ; =0xFFFF805C (RAM)
  03FB1A: F828  fmov.s @r2,fr8
  03FB1C: D626  mov.l  @(0x3FBB8),r6  ; =0xFFFF7F08 (RAM)
  03FB1E: E0E8  mov    #-24,r0
  03FB20: F687  fmov.s fr8,@(r0,r6)
  03FB22: 60C3  mov    r12,r0
  03FB24: C045  mov.b  r0,@(69,GBR)
  03FB26: E000  mov    #0,r0
  03FB28: C049  mov.b  r0,@(73,GBR)
  03FB2A: C716  mova   @(0x3FB84),r0
  03FB2C: F908  fmov.s @r0,fr9
  03FB2E: E0B8  mov    #-72,r0
  03FB30: F697  fmov.s fr9,@(r0,r6)
  03FB32: E0BC  mov    #-68,r0
  03FB34: F697  fmov.s fr9,@(r0,r6)
  03FB36: D418  mov.l  @(0x3FB98),r4  ; =0x000ADA98 (ROM)
  03FB38: D218  mov.l  @(0x3FB9C),r2  ; =0x000BE830 [func:table_desc_1d_float]
  03FB3A: 420B  jsr    @r2
  03FB3C: F4EC  fmov   fr14,fr4
  03FB3E: D61E  mov.l  @(0x3FBB8),r6  ; =0xFFFF7F08 (RAM)
  03FB40: E0DC  mov    #-36,r0
  03FB42: F607  fmov.s fr0,@(r0,r6)
  03FB44: E0FF  mov    #-1,r0
  03FB46: C028  mov.b  r0,@(40,GBR)
  03FB48: 84F4  mov.b  @(4,r15),r0
  03FB4A: C046  mov.b  r0,@(70,GBR)
  03FB4C: E000  mov    #0,r0
  03FB4E: C02B  mov.b  r0,@(43,GBR)
  03FB50: C42D  mov.b  @(45,GBR),r0
  03FB52: 1F02  mov.l  r0,@(8,r15)
  03FB54: C04B  mov.b  r0,@(75,GBR)
  03FB56: 7F0C  add    #12,r15
  03FB58: 4F17  ldc.l  @r15+,GBR
  03FB5A: FEF9  fmov.s @r15+,fr14
  03FB5C: 4F26  lds.l  @r15+,PR
  03FB5E: 6EF6  mov.l  @r15+,r14
  03FB60: 6DF6  mov.l  @r15+,r13
  03FB62: 000B  rts
  03FB64: 6CF6  mov.l  @r15+,r12
  03FB66: 0000  .word  0x0000

  --- Literal Pool References ---
    0x03F508: 0xFFFF7E90  RAM [unknown]
    0x03F50C: 0xFFFF6624  RAM [rpm_current]
    0x03F510: 0xFFFF62F8  RAM [unknown]
    0x03F514: 0xFFFF65FC  RAM [unknown]
    0x03F518: 0xFFFF6350  RAM [ect_current]
    0x03F51C: 0xFFFF7F68  RAM [unknown]
    0x03F520: 0xFFFF8F16  RAM [unknown]
    0x03F524: 0xFFFF8F24  RAM [unknown]
    0x03F528: 0xFFFF85D7  RAM [unknown]
    0x03F52C: 0xFFFF5BE3  RAM [unknown]
    0x03F530: 0xFFFF65BF  RAM [unknown]
    0x03F534: 0xFFFF7D18  RAM [sched_status_R1]
    0x03F538: 0x0005EB32
    0x03F53C: 0xFFFF7FBC  RAM [unknown]
    0x03F540: 0x000D2974
    0x03F544: 0x000D2975
    0x03F548: 0xFFFF7F0C  RAM [timing_blend_gbr]
    0x03F54C: 0xFFFF8258  RAM [unknown]
    0x03F554: 0x000D2A34  [MapSwitch_IdleModeThreshold]
    0x03F558: 0xFFFF81DC  RAM [unknown]
    0x03F55C: 0x000BE970
    0x03F560: 0xFFFF7F04  RAM [unknown]
    0x03F564: 0x000D2A08  [MapSwitch_EngineSpeedThreshold]
    0x03F568: 0xFFFF7F1C  RAM [unknown]
    0x03F56C: 0x000D2A0C  [MapSwitch_TorqueRatioThreshold]
    0x03F570: 0x000D2A10  [MapSwitch_MAFLoadThreshold]
    0x03F574: 0x000D2A14  [MapSwitch_VehicleSpeedLow]
    0x03F578: 0x000D2A18  [MapSwitch_VehicleSpeedHigh]
    0x03F57C: 0x000D2A1C  [MapSwitch_IATThreshold]
    0x03F580: 0x000D2A38  [MapSwitch_SIDriveThreshold]
    0x03F70C: 0xD245F828
    0x03F764: 0x8919E2F0
    0x03F7E8: 0x000D2A20
    0x03F7EC: 0x000D2A24
    0x03F7F0: 0x000D2A28
    0x03F7F4: 0x000D2A2C
    0x03F7F8: 0x000D2A30  (ROM cal: 119)
    0x03F7FC: 0x000D2A3C
    0x03F800: 0xFFFF81DC  RAM [unknown]
    0x03F804: 0x000BE970
    0x03F808: 0xFFFF7F0C  RAM [timing_blend_gbr]
    0x03F80C: 0xFFFF8260  RAM [unknown]
    0x03F810: 0xFFFF81F0  RAM [unknown]
    0x03F814: 0x000D2976
    0x03F818: 0xFFFF7F6C  RAM [unknown]
    0x03F81C: 0xFFFF7F74  RAM [unknown]
    0x03F820: 0xFFFF8000  RAM [unknown]
    0x03F824: 0xFFFF81EC  RAM [unknown]
    0x03F828: 0xFFFF8028  RAM [unknown]
    0x03F82C: 0xFFFF8038  RAM [unknown]
    0x03F830: 0xFFFF803C  RAM [unknown]
    0x03F834: 0xFFFF805C  RAM [unknown]
    0x03F838: 0xFFFF8084  RAM [unknown]
    0x03F83C: 0xFFFF80B4  RAM [unknown]
    0x03F840: 0xFFFF80C4  RAM [unknown]
    0x03F844: 0xFFFF80E8  RAM [unknown]
    0x03F848: 0xFFFF80F0  RAM [unknown]
    0x03F84C: 0xFFFF8088  RAM [unknown]
    0x03F850: 0x000BE960
    0x03F854: 0xFFFF80B8  RAM [unknown]
    0x03F858: 0xFFFF80DC  RAM [unknown]
    0x03F85C: 0xFFFF7F04  RAM [unknown]
    0x03F860: 0x000AB69C
    0x03F864: 0x000BE830  [table_desc_1d_float]
    0x03FB6C: 0x000D2976
    0x03FB70: 0xFFFF7F0C  RAM [timing_blend_gbr]
    0x03FB74: 0xFFFF7F6C  RAM [unknown]
    0x03FB78: 0xFFFF7F04  RAM [unknown]
    0x03FB7C: 0x000BE56C
    0x03FB88: 0xFFFF7EC0  RAM [unknown]
    0x03FB8C: 0xFFFF6350  RAM [ect_current]
    0x03FB90: 0xFFFF7EFC  RAM [unknown]
    0x03FB98: 0x000ADA98
    0x03FB9C: 0x000BE830  [table_desc_1d_float]
    0x03FBA0: 0x00022F92
    0x03FBA4: 0xFFFF5BE3  RAM [unknown]
    0x03FBA8: 0xFFFF65BF  RAM [unknown]
    0x03FBAC: 0xFFFF85D7  RAM [unknown]
    0x03FBB0: 0x0003AB20
    0x03FBB4: 0xFFFF805C  RAM [unknown]
    0x03FBB8: 0xFFFF7F08  RAM [unknown]

  --- Subroutine calls ---
    0x03F3B8 -> FUN_05EB32 @ 0x05EB32
    0x03F6B6 -> FUN_0BE970 @ 0x0BE970
    0x03F6C0 -> FUN_0BE970 @ 0x0BE970
    0x03F6CA -> FUN_0BE970 @ 0x0BE970
    0x03F6D4 -> FUN_0BE970 @ 0x0BE970
    0x03F6DE -> FUN_0BE970 @ 0x0BE970
    0x03F702 -> FUN_0BE960 @ 0x0BE960
    0x03F7AC -> table_desc_1d_float @ 0x0BE830
    0x03F862 -> FUN_04059E @ 0x04059E
    0x03F8B4 -> jsr @r5 (unresolved)
    0x03F900 -> jsr @r5 (unresolved)
    0x03F914 -> jsr @r5 (unresolved)
    0x03F928 -> jsr @r5 (unresolved)
    0x03F93C -> jsr @r5 (unresolved)
    0x03F954 -> FUN_0BE56C @ 0x0BE56C
    0x03F964 -> FUN_0BE56C @ 0x0BE56C
    0x03F974 -> jsr @r14 (unresolved)
    0x03F986 -> jsr @r14 (unresolved)
    0x03F996 -> jsr @r14 (unresolved)
    0x03F9A6 -> jsr @r14 (unresolved)
    0x03F9BA -> jsr @r14 (unresolved)
    0x03F9CA -> jsr @r14 (unresolved)
    0x03F9F4 -> jsr @r14 (unresolved)
    0x03FA04 -> jsr @r14 (unresolved)
    0x03FA12 -> jsr @r14 (unresolved)
    0x03FA20 -> jsr @r14 (unresolved)
    0x03FA32 -> jsr @r14 (unresolved)
    0x03FA44 -> jsr @r14 (unresolved)
    0x03FA56 -> jsr @r14 (unresolved)
    0x03FA68 -> jsr @r14 (unresolved)
    0x03FABC -> table_desc_1d_float @ 0x0BE830
    0x03FAE6 -> FUN_022F92 @ 0x022F92
    0x03FAFA -> FUN_03AB20 @ 0x03AB20
    0x03FB3A -> table_desc_1d_float @ 0x0BE830

==============================================================================
  XREF SCAN: Writers to FFFF7F60 (map_ratio)
==============================================================================
  Found 7 references to 0xFFFF7F60:
    0x0400B6  (in task32_timing_blend_app)
    0x040160  (in task32_timing_blend_app)
    0x0402AA  (in task32_timing_blend_app)
    0x0402C8  (in task32_timing_blend_app)
    0x0402D8  (in task32_timing_blend_app)
    0x0402F4  (in task32_timing_blend_app)
    0x0402FA  (in task32_timing_blend_app)

==============================================================================
  XREF SCAN: References to MapSwitch calibrations (0xD2A08)
==============================================================================
  Found 1 references to 0x000D2A08 (MapSwitch_EngineSpeedThreshold):
    0x03F48C  (in task50_timing_blend_int)

==============================================================================
  Map switch evaluator: FUN_03F374  @  0x3F374
==============================================================================
  03F374: 4F22  sts.l  PR,@-r15
  03F376: FFCB  fmov.s fr12,@-r15
  03F378: FFDB  fmov.s fr13,@-r15
  03F37A: FFEB  fmov.s fr14,@-r15
  03F37C: FFFB  fmov.s fr15,@-r15
  03F37E: 4F13  .word  0x4F13
  03F380: D061  mov.l  @(0x3F508),r0  ; =0xFFFF7E90 (RAM)
  03F382: 401E  ldc    r0,GBR
  03F384: 7FB0  add    #-80,r15
  03F386: D261  mov.l  @(0x3F50C),r2  ; =0xFFFF6624 (RAM) [rpm_current]
  03F388: FC28  fmov.s @r2,fr12
  03F38A: D261  mov.l  @(0x3F510),r2  ; =0xFFFF62F8 (RAM)
  03F38C: FE28  fmov.s @r2,fr14
  03F38E: D261  mov.l  @(0x3F514),r2  ; =0xFFFF65FC (RAM)
  03F390: FF28  fmov.s @r2,fr15
  03F392: D261  mov.l  @(0x3F518),r2  ; =0xFFFF6350 (RAM) [ect_current]
  03F394: F828  fmov.s @r2,fr8
  03F396: FF8A  fmov.s fr8,@r15
  03F398: D260  mov.l  @(0x3F51C),r2  ; =0xFFFF7F68 (RAM)
  03F39A: F828  fmov.s @r2,fr8
  03F39C: E004  mov    #4,r0
  03F39E: FF87  fmov.s fr8,@(r0,r15)
  03F3A0: D65F  mov.l  @(0x3F520),r6  ; =0xFFFF8F16 (RAM)
  03F3A2: 6C60  mov.b  @r6,r12
  03F3A4: D65F  mov.l  @(0x3F524),r6  ; =0xFFFF8F24 (RAM)
  03F3A6: 6B60  mov.b  @r6,r11
  03F3A8: D65F  mov.l  @(0x3F528),r6  ; =0xFFFF85D7 (RAM)
  03F3AA: 6A60  mov.b  @r6,r10
  03F3AC: D65F  mov.l  @(0x3F52C),r6  ; =0xFFFF5BE3 (RAM)
  03F3AE: 6E60  mov.b  @r6,r14
  03F3B0: D65F  mov.l  @(0x3F530),r6  ; =0xFFFF65BF (RAM)
  03F3B2: 6D60  mov.b  @r6,r13
  03F3B4: D65F  mov.l  @(0x3F534),r6  ; =0xFFFF7D18 (RAM) [sched_status_R1]
  03F3B6: D260  mov.l  @(0x3F538),r2  ; =0x0005EB32 (ROM)
  03F3B8: 420B  jsr    @r2
  03F3BA: 6960  mov.b  @r6,r9
  03F3BC: 620C  extu.b r0,r2
  03F3BE: D65F  mov.l  @(0x3F53C),r6  ; =0xFFFF7FBC (RAM)
  03F3C0: F868  fmov.s @r6,fr8
  03F3C2: E008  mov    #8,r0
  03F3C4: FF87  fmov.s fr8,@(r0,r15)
  03F3C6: 65EC  extu.b r14,r5
  03F3C8: 6053  mov    r5,r0
  03F3CA: 8801  cmp/eq #1,r0
  03F3CC: 8B02  bf     0x3F3D4
  03F3CE: E000  mov    #0,r0
  03F3D0: A010  bra    0x3F3F4
  03F3D2: C071  mov.b  r0,@(113,GBR)
  03F3D4: C473  mov.b  @(115,GBR),r0
  03F3D6: 8801  cmp/eq #1,r0
  03F3D8: 8B03  bf     0x3F3E2
  03F3DA: D459  mov.l  @(0x3F540),r4  ; =0x000D2974 (ROM)
  03F3DC: 6040  mov.b  @r4,r0
  03F3DE: A009  bra    0x3F3F4
  03F3E0: C071  mov.b  r0,@(113,GBR)
  03F3E2: C471  mov.b  @(113,GBR),r0
  03F3E4: 640C  extu.b r0,r4
  03F3E6: 4415  cmp/pl  r4
  03F3E8: 8F04  bf/s   0x3F3F4
  03F3EA: 1F0E  mov.l  r0,@(56,r15)
  03F3EC: C471  mov.b  @(113,GBR),r0
  03F3EE: 1F0F  mov.l  r0,@(60,r15)
  03F3F0: 70FF  add    #-1,r0
  03F3F2: C071  mov.b  r0,@(113,GBR)
  03F3F4: 60E3  mov    r14,r0
  03F3F6: C073  mov.b  r0,@(115,GBR)
  03F3F8: 64DC  extu.b r13,r4
  03F3FA: 6043  mov    r4,r0
  03F3FC: 8801  cmp/eq #1,r0
  03F3FE: 8B02  bf     0x3F406
  03F400: E000  mov    #0,r0
  03F402: A015  bra    0x3F430
  03F404: C072  mov.b  r0,@(114,GBR)
  03F406: C474  mov.b  @(116,GBR),r0
  03F408: 8801  cmp/eq #1,r0
  03F40A: 8B03  bf     0x3F414
  03F40C: D14D  mov.l  @(0x3F544),r1  ; =0x000D2975 (ROM)
  03F40E: 6010  mov.b  @r1,r0
  03F410: A00E  bra    0x3F430
  03F412: C072  mov.b  r0,@(114,GBR)
  03F414: C472  mov.b  @(114,GBR),r0
  03F416: 6603  mov    r0,r6
  03F418: E040  mov    #64,r0
  03F41A: 616C  extu.b r6,r1
  03F41C: 4115  cmp/pl  r1
  03F41E: 8F07  bf/s   0x3F430
  03F420: 0F66  mov.l  r6,@(r0,r15)
  03F422: C472  mov.b  @(114,GBR),r0
  03F424: 6603  mov    r0,r6
  03F426: E044  mov    #68,r0
  03F428: 0F66  mov.l  r6,@(r0,r15)
  03F42A: 76FF  add    #-1,r6
  03F42C: 6063  mov    r6,r0
  03F42E: C072  mov.b  r0,@(114,GBR)
  03F430: 60D3  mov    r13,r0
  03F432: C074  mov.b  r0,@(116,GBR)
  03F434: 6ECC  extu.b r12,r14
  03F436: 60E3  mov    r14,r0
  03F438: 8803  cmp/eq #3,r0
  03F43A: 8B12  bf     0x3F462
  03F43C: D242  mov.l  @(0x3F548),r2  ; =0xFFFF7F0C (RAM) [timing_blend_gbr]
  03F43E: FD28  fmov.s @r2,fr13
  03F440: D242  mov.l  @(0x3F54C),r2  ; =0xFFFF8258 (RAM)
  03F442: F028  fmov.s @r2,fr0
  03F444: C742  mova   @(0x3F550),r0
  03F446: F908  fmov.s @r0,fr9
  03F448: FD9E  fmac   fr0,fr9,fr13
  03F44A: D242  mov.l  @(0x3F554),r2  ; =0x000D2A34 [cal:MapSwitch_IdleModeThreshold]
  03F44C: F928  fmov.s @r2,fr9
  03F44E: FD91  fsub fr9,fr13
  03F450: E00C  mov    #12,r0
  03F452: FFD7  fmov.s fr13,@(r0,r15)
  03F454: FFDC  fmov   fr13,fr15
  03F456: FCDC  fmov   fr13,fr12
  03F458: D63F  mov.l  @(0x3F558),r6  ; =0xFFFF81DC (RAM)
  03F45A: 1F64  mov.l  r6,@(16,r15)
  03F45C: D53F  mov.l  @(0x3F55C),r5  ; =0x000BE970 (ROM)
  03F45E: A216  bra    0x3F88E
  03F460: 1F55  mov.l  r5,@(20,r15)
  03F462: 60E3  mov    r14,r0
  03F464: 8801  cmp/eq #1,r0
  03F466: 8B03  bf     0x3F470
  03F468: DC3D  mov.l  @(0x3F560),r12  ; =0xFFFF7F04 (RAM)
  03F46A: E0D8  mov    #-40,r0
  03F46C: A0AA  bra    0x3F5C4
  03F46E: FFC6  fmov.s @(r0,r12),fr15
  03F470: 60BC  extu.b r11,r0
  03F472: 8801  cmp/eq #1,r0
  03F474: 8B11  bf     0x3F49A
  03F476: 6023  mov    r2,r0
  03F478: 8801  cmp/eq #1,r0
  03F47A: 8B0E  bf     0x3F49A
  03F47C: 60AC  extu.b r10,r0
  03F47E: 8801  cmp/eq #1,r0
  03F480: 8B0B  bf     0x3F49A
  03F482: E004  mov    #4,r0
  03F484: F8F6  fmov.s @(r0,r15),fr8
  03F486: F58D  fldi0  fr5
  03F488: F855  fcmp/gt fr5,fr8
  03F48A: 8906  bt     0x3F49A
  03F48C: D235  mov.l  @(0x3F564),r2  ; =0x000D2A08 [cal:MapSwitch_EngineSpeedThreshold]
  03F48E: F828  fmov.s @r2,fr8
  03F490: F8C5  fcmp/gt fr12,fr8
  03F492: 8B02  bf     0x3F49A
  03F494: D234  mov.l  @(0x3F568),r2  ; =0xFFFF7F1C (RAM)
  03F496: A095  bra    0x3F5C4
  03F498: FF28  fmov.s @r2,fr15
  03F49A: D234  mov.l  @(0x3F56C),r2  ; =0x000D2A0C [cal:MapSwitch_TorqueRatioThreshold]
  03F49C: F828  fmov.s @r2,fr8
  03F49E: F8E5  fcmp/gt fr14,fr8
  03F4A0: 8B70  bf     0x3F584
  03F4A2: D233  mov.l  @(0x3F570),r2  ; =0x000D2A10 [cal:MapSwitch_MAFLoadThreshold]
  03F4A4: F828  fmov.s @r2,fr8
  03F4A6: F8F5  fcmp/gt fr15,fr8
  03F4A8: 8B6C  bf     0x3F584
  03F4AA: D232  mov.l  @(0x3F574),r2  ; =0x000D2A14 [cal:MapSwitch_VehicleSpeedLow]
  03F4AC: F828  fmov.s @r2,fr8
  03F4AE: F8C5  fcmp/gt fr12,fr8
  03F4B0: 8968  bt     0x3F584
  03F4B2: D231  mov.l  @(0x3F578),r2  ; =0x000D2A18 [cal:MapSwitch_VehicleSpeedHigh]
  03F4B4: F828  fmov.s @r2,fr8
  03F4B6: F8C5  fcmp/gt fr12,fr8
  03F4B8: 8B64  bf     0x3F584
  03F4BA: C471  mov.b  @(113,GBR),r0
  03F4BC: 6203  mov    r0,r2
  03F4BE: E048  mov    #72,r0
  03F4C0: 662C  extu.b r2,r6
  03F4C2: 4615  cmp/pl  r6
  03F4C4: 8F5E  bf/s   0x3F584
  03F4C6: 0F26  mov.l  r2,@(r0,r15)
  03F4C8: 2558  tst r5,r5
  03F4CA: 8B5B  bf     0x3F584
  03F4CC: F7F8  fmov.s @r15,fr7
  03F4CE: D22B  mov.l  @(0x3F57C),r2  ; =0x000D2A1C [cal:MapSwitch_IATThreshold]
  03F4D0: F828  fmov.s @r2,fr8
  03F4D2: F875  fcmp/gt fr7,fr8
  03F4D4: 8956  bt     0x3F584
  03F4D6: D22A  mov.l  @(0x3F580),r2  ; =0x000D2A38 [cal:MapSwitch_SIDriveThreshold]
  03F4D8: A074  bra    0x3F5C4
  03F4DA: FF28  fmov.s @r2,fr15
  03F4DC: FFFF  .word  0xFFFF  ; FPU
  03F4DE: 7F08  add    #8,r15
  03F4E0: 000D  mov.w  @(r0,r0),r0
  03F4E2: 2ABC  cmp/str r11,r10
  03F4E4: 000B  rts
  03F4E6: E960  mov    #96,r9
  03F4E8: 000B  rts
  03F4EA: E608  mov    #8,r6
  03F4EC: 3980  cmp/eq r8,r9
  03F4EE: 0000  .word  0x0000
  03F4F0: 000D  mov.w  @(r0,r0),r0
  03F4F2: 2A40  mov.b  r4,@r10
  03F4F4: 000D  mov.w  @(r0,r0),r0
  03F4F6: 2A44  mov.b  r4,@-r10
  03F4F8: 000A  sts    MACH,r0
  03F4FA: DA84  mov.l  @(0x3F70C),r10  ; =0xD245F828
  03F4FC: 000B  rts
  03F4FE: E830  mov    #48,r8
  03F500: 000A  sts    MACH,r0
  03F502: DA98  mov.l  @(0x3F764),r10  ; =0x8919E2F0
  03F504: C1A0  mov.w  r0,@(320,GBR)  ; GBR+0x140
  03F506: 0000  .word  0x0000
  03F508: FFFF  .word  0xFFFF  ; FPU
  03F50A: 7E90  add    #-112,r14
  03F50C: FFFF  .word  0xFFFF  ; FPU
  03F50E: 6624  mov.b  @r2+,r6
  03F510: FFFF  .word  0xFFFF  ; FPU
  03F512: 62F8  swap.b r15,r2
  03F514: FFFF  .word  0xFFFF  ; FPU
  03F516: 65FC  extu.b r15,r5
  03F518: FFFF  .word  0xFFFF  ; FPU
  03F51A: 6350  mov.b  @r5,r3
  03F51C: FFFF  .word  0xFFFF  ; FPU
  03F51E: 7F68  add    #104,r15
  03F520: FFFF  .word  0xFFFF  ; FPU
  03F522: 8F16  bf/s   0x3F552
  03F524: FFFF  .word  0xFFFF  ; FPU
  03F526: 8F24  bf/s   0x3F572
  03F528: FFFF  .word  0xFFFF  ; FPU
  03F52A: 85D7  mov.w  @(14,r13),r0
  03F52C: FFFF  .word  0xFFFF  ; FPU
  03F52E: 5BE3  mov.l  @(12,r14),r11
  03F530: FFFF  .word  0xFFFF  ; FPU
  03F532: 65BF  exts.w r11,r5
  03F534: FFFF  .word  0xFFFF  ; FPU
  03F536: 7D18  add    #24,r13
  03F538: 0005  mov.w  r0,@(r0,r0)
  03F53A: EB32  mov    #50,r11
  03F53C: FFFF  .word  0xFFFF  ; FPU
  03F53E: 7FBC  add    #-68,r15
  03F540: 000D  mov.w  @(r0,r0),r0
  03F542: 2974  mov.b  r7,@-r9
  03F544: 000D  mov.w  @(r0,r0),r0
  03F546: 2975  mov.w  r7,@-r9
  03F548: FFFF  .word  0xFFFF  ; FPU
  03F54A: 7F0C  add    #12,r15
  03F54C: FFFF  .word  0xFFFF  ; FPU
  03F54E: 8258  .word  0x8258
  03F550: 3F00  cmp/eq r0,r15
  03F552: 0000  .word  0x0000
  03F554: 000D  mov.w  @(r0,r0),r0
  03F556: 2A34  mov.b  r3,@-r10
  03F558: FFFF  .word  0xFFFF  ; FPU
  03F55A: 81DC  mov.w  r0,@(24,r13)
  03F55C: 000B  rts
  03F55E: E970  mov    #112,r9
  03F560: FFFF  .word  0xFFFF  ; FPU
  03F562: 7F04  add    #4,r15
  03F564: 000D  mov.w  @(r0,r0),r0
  03F566: 2A08  tst r0,r10
  03F568: FFFF  .word  0xFFFF  ; FPU
  03F56A: 7F1C  add    #28,r15
  03F56C: 000D  mov.w  @(r0,r0),r0
  03F56E: 2A0C  cmp/str r0,r10
  03F570: 000D  mov.w  @(r0,r0),r0
  03F572: 2A10  mov.b  r1,@r10
  03F574: 000D  mov.w  @(r0,r0),r0
  03F576: 2A14  mov.b  r1,@-r10
  03F578: 000D  mov.w  @(r0,r0),r0
  03F57A: 2A18  tst r1,r10
  03F57C: 000D  mov.w  @(r0,r0),r0
  03F57E: 2A1C  cmp/str r1,r10
  03F580: 000D  mov.w  @(r0,r0),r0
  03F582: 2A38  tst r3,r10
  03F584: D298  mov.l  @(0x3F7E8),r2  ; =0x000D2A20 (ROM)
  03F586: F828  fmov.s @r2,fr8
  03F588: F8E5  fcmp/gt fr14,fr8
  03F58A: 8B24  bf     0x3F5D6
  03F58C: D297  mov.l  @(0x3F7EC),r2  ; =0x000D2A24 (ROM)
  03F58E: F828  fmov.s @r2,fr8
  03F590: F8F5  fcmp/gt fr15,fr8
  03F592: 8B20  bf     0x3F5D6
  03F594: D296  mov.l  @(0x3F7F0),r2  ; =0x000D2A28 (ROM)
  03F596: F828  fmov.s @r2,fr8
  03F598: F8C5  fcmp/gt fr12,fr8
  03F59A: 891C  bt     0x3F5D6
  03F59C: D295  mov.l  @(0x3F7F4),r2  ; =0x000D2A2C (ROM)
  03F59E: F828  fmov.s @r2,fr8
  03F5A0: F8C5  fcmp/gt fr12,fr8
  03F5A2: 8B18  bf     0x3F5D6
  03F5A4: C472  mov.b  @(114,GBR),r0
  03F5A6: 6203  mov    r0,r2
  03F5A8: E04C  mov    #76,r0
  03F5AA: 662C  extu.b r2,r6
  03F5AC: 4615  cmp/pl  r6
  03F5AE: 8F12  bf/s   0x3F5D6
  03F5B0: 0F26  mov.l  r2,@(r0,r15)
  03F5B2: 2448  tst r4,r4
  03F5B4: 8B0F  bf     0x3F5D6
  03F5B6: F7F8  fmov.s @r15,fr7
  03F5B8: D28F  mov.l  @(0x3F7F8),r2  ; =0x000D2A30 (ROM)
  03F5BA: F828  fmov.s @r2,fr8
  03F5BC: F875  fcmp/gt fr7,fr8
  03F5BE: 890A  bt     0x3F5D6
  03F5C0: D28E  mov.l  @(0x3F7FC),r2  ; =0x000D2A3C (ROM)
  03F5C2: FF28  fmov.s @r2,fr15
  03F5C4: D68E  mov.l  @(0x3F800),r6  ; =0xFFFF81DC (RAM)
  03F5C6: 1F64  mov.l  r6,@(16,r15)
  03F5C8: D58E  mov.l  @(0x3F804),r5  ; =0x000BE970 (ROM)
  03F5CA: 1F55  mov.l  r5,@(20,r15)
  03F5CC: FCFC  fmov   fr15,fr12
  03F5CE: FDFC  fmov   fr15,fr13
  03F5D0: E00C  mov    #12,r0
  03F5D2: A15C  bra    0x3F88E
  03F5D4: FFF7  fmov.s fr15,@(r0,r15)
  03F5D6: 609C  extu.b r9,r0
  03F5D8: 8801  cmp/eq #1,r0
  03F5DA: 8B19  bf     0x3F610
  03F5DC: D28A  mov.l  @(0x3F808),r2  ; =0xFFFF7F0C (RAM) [timing_blend_gbr]
  03F5DE: F828  fmov.s @r2,fr8
  03F5E0: D28A  mov.l  @(0x3F80C),r2  ; =0xFFFF8260 (RAM)
  03F5E2: F928  fmov.s @r2,fr9
  03F5E4: F890  fadd fr9,fr8
  03F5E6: D28A  mov.l  @(0x3F810),r2  ; =0xFFFF81F0 (RAM)
  03F5E8: F928  fmov.s @r2,fr9
  03F5EA: F890  fadd fr9,fr8
  03F5EC: D284  mov.l  @(0x3F800),r2  ; =0xFFFF81DC (RAM)
  03F5EE: 1F24  mov.l  r2,@(16,r15)
  03F5F0: F128  fmov.s @r2,fr1
  03F5F2: F180  fadd fr8,fr1
  03F5F4: E00C  mov    #12,r0
  03F5F6: FF17  fmov.s fr1,@(r0,r15)
  03F5F8: E004  mov    #4,r0
  03F5FA: FD26  fmov.s @(r0,r2),fr13
  03F5FC: FD80  fadd fr8,fr13
  03F5FE: E008  mov    #8,r0
  03F600: FC26  fmov.s @(r0,r2),fr12
  03F602: FC80  fadd fr8,fr12
  03F604: E00C  mov    #12,r0
  03F606: FF26  fmov.s @(r0,r2),fr15
  03F608: FF80  fadd fr8,fr15
  03F60A: D57E  mov.l  @(0x3F804),r5  ; =0x000BE970 (ROM)
  03F60C: A13F  bra    0x3F88E
  03F60E: 1F55  mov.l  r5,@(20,r15)
  03F610: D680  mov.l  @(0x3F814),r6  ; =0x000D2976 (ROM)
  03F612: 6060  mov.b  @r6,r0
  03F614: 885A  cmp/eq #90,r0
  03F616: 8B49  bf     0x3F6AC
  03F618: D27B  mov.l  @(0x3F808),r2  ; =0xFFFF7F0C (RAM) [timing_blend_gbr]
  03F61A: F628  fmov.s @r2,fr6
  03F61C: E004  mov    #4,r0
  03F61E: F9F6  fmov.s @(r0,r15),fr9
  03F620: F690  fadd fr9,fr6
  03F622: D27D  mov.l  @(0x3F818),r2  ; =0xFFFF7F6C (RAM)
  03F624: F928  fmov.s @r2,fr9
  03F626: F690  fadd fr9,fr6
  03F628: D27C  mov.l  @(0x3F81C),r2  ; =0xFFFF7F74 (RAM)
  03F62A: F928  fmov.s @r2,fr9
  03F62C: F690  fadd fr9,fr6
  03F62E: E008  mov    #8,r0
  03F630: F9F6  fmov.s @(r0,r15),fr9
  03F632: F691  fsub fr9,fr6
  03F634: D67A  mov.l  @(0x3F820),r6  ; =0xFFFF8000 (RAM)
  03F636: F968  fmov.s @r6,fr9
  03F638: F691  fsub fr9,fr6
  03F63A: D27A  mov.l  @(0x3F824),r2  ; =0xFFFF81EC (RAM)
  03F63C: F928  fmov.s @r2,fr9
  03F63E: F690  fadd fr9,fr6
  03F640: D279  mov.l  @(0x3F828),r2  ; =0xFFFF8028 (RAM)
  03F642: F928  fmov.s @r2,fr9
  03F644: F690  fadd fr9,fr6
  03F646: D279  mov.l  @(0x3F82C),r2  ; =0xFFFF8038 (RAM)
  03F648: F928  fmov.s @r2,fr9
  03F64A: F691  fsub fr9,fr6
  03F64C: D678  mov.l  @(0x3F830),r6  ; =0xFFFF803C (RAM)
  03F64E: F968  fmov.s @r6,fr9
  03F650: F690  fadd fr9,fr6
  03F652: D678  mov.l  @(0x3F834),r6  ; =0xFFFF805C (RAM)
  03F654: F968  fmov.s @r6,fr9
  03F656: F690  fadd fr9,fr6
  03F658: D277  mov.l  @(0x3F838),r2  ; =0xFFFF8084 (RAM)
  03F65A: F928  fmov.s @r2,fr9
  03F65C: F691  fsub fr9,fr6
  03F65E: D277  mov.l  @(0x3F83C),r2  ; =0xFFFF80B4 (RAM)
  03F660: F928  fmov.s @r2,fr9
  03F662: F690  fadd fr9,fr6
  03F664: D276  mov.l  @(0x3F840),r2  ; =0xFFFF80C4 (RAM)
  03F666: F928  fmov.s @r2,fr9
  03F668: F690  fadd fr9,fr6
  03F66A: D276  mov.l  @(0x3F844),r2  ; =0xFFFF80E8 (RAM)
  03F66C: F928  fmov.s @r2,fr9
  03F66E: F691  fsub fr9,fr6
  03F670: D275  mov.l  @(0x3F848),r2  ; =0xFFFF80F0 (RAM)
  03F672: F828  fmov.s @r2,fr8
  03F674: F680  fadd fr8,fr6
  03F676: D575  mov.l  @(0x3F84C),r5  ; =0xFFFF8088 (RAM)
  03F678: F958  fmov.s @r5,fr9
  03F67A: F960  fadd fr6,fr9
  03F67C: D260  mov.l  @(0x3F800),r2  ; =0xFFFF81DC (RAM)
  03F67E: 1F24  mov.l  r2,@(16,r15)
  03F680: F828  fmov.s @r2,fr8
  03F682: F980  fadd fr8,fr9
  03F684: E00C  mov    #12,r0
  03F686: FF97  fmov.s fr9,@(r0,r15)
  03F688: E004  mov    #4,r0
  03F68A: FD56  fmov.s @(r0,r5),fr13
  03F68C: FD60  fadd fr6,fr13
  03F68E: F926  fmov.s @(r0,r2),fr9
  03F690: FD90  fadd fr9,fr13
  03F692: E008  mov    #8,r0
  03F694: FC56  fmov.s @(r0,r5),fr12
  03F696: FC60  fadd fr6,fr12
  03F698: F926  fmov.s @(r0,r2),fr9
  03F69A: FC90  fadd fr9,fr12
  03F69C: E00C  mov    #12,r0
  03F69E: FF56  fmov.s @(r0,r5),fr15
  03F6A0: FF60  fadd fr6,fr15
  03F6A2: F826  fmov.s @(r0,r2),fr8
  03F6A4: FF80  fadd fr8,fr15
  03F6A6: D557  mov.l  @(0x3F804),r5  ; =0x000BE970 (ROM)
  03F6A8: A05A  bra    0x3F760
  03F6AA: 1F55  mov.l  r5,@(20,r15)
  03F6AC: D255  mov.l  @(0x3F804),r2  ; =0x000BE970 (ROM)
  03F6AE: 1F25  mov.l  r2,@(20,r15)
  03F6B0: D65F  mov.l  @(0x3F830),r6  ; =0xFFFF803C (RAM)
  03F6B2: F568  fmov.s @r6,fr5
  03F6B4: D65F  mov.l  @(0x3F834),r6  ; =0xFFFF805C (RAM)
  03F6B6: 420B  jsr    @r2
  03F6B8: F468  fmov.s @r6,fr4
  03F6BA: D25B  mov.l  @(0x3F828),r2  ; =0xFFFF8028 (RAM)
  03F6BC: F528  fmov.s @r2,fr5
  03F6BE: D251  mov.l  @(0x3F804),r2  ; =0x000BE970 (ROM)
  03F6C0: 420B  jsr    @r2
  03F6C2: F40C  fmov   fr0,fr4
  03F6C4: D25E  mov.l  @(0x3F840),r2  ; =0xFFFF80C4 (RAM)
  03F6C6: F528  fmov.s @r2,fr5
  03F6C8: D24E  mov.l  @(0x3F804),r2  ; =0x000BE970 (ROM)
  03F6CA: 420B  jsr    @r2
  03F6CC: F40C  fmov   fr0,fr4
  03F6CE: D252  mov.l  @(0x3F818),r2  ; =0xFFFF7F6C (RAM)
  03F6D0: F528  fmov.s @r2,fr5
  03F6D2: D24C  mov.l  @(0x3F804),r2  ; =0x000BE970 (ROM)
  03F6D4: 420B  jsr    @r2
  03F6D6: F40C  fmov   fr0,fr4
  03F6D8: D25B  mov.l  @(0x3F848),r2  ; =0xFFFF80F0 (RAM)
  03F6DA: F528  fmov.s @r2,fr5
  03F6DC: D249  mov.l  @(0x3F804),r2  ; =0x000BE970 (ROM)
  03F6DE: 420B  jsr    @r2
  03F6E0: F40C  fmov   fr0,fr4
  03F6E2: E018  mov    #24,r0
  03F6E4: FF07  fmov.s fr0,@(r0,r15)
  03F6E6: D248  mov.l  @(0x3F808),r2  ; =0xFFFF7F0C (RAM) [timing_blend_gbr]
  03F6E8: F628  fmov.s @r2,fr6
  03F6EA: E004  mov    #4,r0
  03F6EC: F8F6  fmov.s @(r0,r15),fr8
  03F6EE: F680  fadd fr8,fr6
  03F6F0: D24A  mov.l  @(0x3F81C),r2  ; =0xFFFF7F74 (RAM)
  03F6F2: F828  fmov.s @r2,fr8
  03F6F4: F680  fadd fr8,fr6
  03F6F6: E01C  mov    #28,r0
  03F6F8: FF67  fmov.s fr6,@(r0,r15)
  03F6FA: D255  mov.l  @(0x3F850),r2  ; =0x000BE960 (ROM)
  03F6FC: E008  mov    #8,r0
  03F6FE: F4F6  fmov.s @(r0,r15),fr4
  03F700: D647  mov.l  @(0x3F820),r6  ; =0xFFFF8000 (RAM)
  03F702: 420B  jsr    @r2
  03F704: F568  fmov.s @r6,fr5
  03F706: E01C  mov    #28,r0
  03F708: F6F6  fmov.s @(r0,r15),fr6
  03F70A: F601  fsub fr0,fr6
  03F70C: D245  mov.l  @(0x3F824),r2  ; =0xFFFF81EC (RAM)
  03F70E: F828  fmov.s @r2,fr8
  03F710: F680  fadd fr8,fr6
  03F712: D246  mov.l  @(0x3F82C),r2  ; =0xFFFF8038 (RAM)
  03F714: F828  fmov.s @r2,fr8
  03F716: F681  fsub fr8,fr6
  03F718: D247  mov.l  @(0x3F838),r2  ; =0xFFFF8084 (RAM)
  03F71A: F828  fmov.s @r2,fr8
  03F71C: F681  fsub fr8,fr6
  03F71E: D247  mov.l  @(0x3F83C),r2  ; =0xFFFF80B4 (RAM)
  03F720: F828  fmov.s @r2,fr8
  03F722: F680  fadd fr8,fr6
  03F724: E018  mov    #24,r0
  03F726: F8F6  fmov.s @(r0,r15),fr8
  03F728: F680  fadd fr8,fr6
  03F72A: D246  mov.l  @(0x3F844),r2  ; =0xFFFF80E8 (RAM)
  03F72C: F828  fmov.s @r2,fr8
  03F72E: F681  fsub fr8,fr6
  03F730: D233  mov.l  @(0x3F800),r2  ; =0xFFFF81DC (RAM)
  03F732: 1F24  mov.l  r2,@(16,r15)
  03F734: F928  fmov.s @r2,fr9
  03F736: F960  fadd fr6,fr9
  03F738: D444  mov.l  @(0x3F84C),r4  ; =0xFFFF8088 (RAM)
  03F73A: F848  fmov.s @r4,fr8
  03F73C: F980  fadd fr8,fr9
  03F73E: E00C  mov    #12,r0
  03F740: FF97  fmov.s fr9,@(r0,r15)
  03F742: E004  mov    #4,r0
  03F744: FD26  fmov.s @(r0,r2),fr13
  03F746: FD60  fadd fr6,fr13
  03F748: F946  fmov.s @(r0,r4),fr9
  03F74A: FD90  fadd fr9,fr13
  03F74C: E008  mov    #8,r0
  03F74E: FC26  fmov.s @(r0,r2),fr12
  03F750: FC60  fadd fr6,fr12
  03F752: F946  fmov.s @(r0,r4),fr9
  03F754: FC90  fadd fr9,fr12
  03F756: E00C  mov    #12,r0
  03F758: FF26  fmov.s @(r0,r2),fr15
  03F75A: FF60  fadd fr6,fr15
  03F75C: F946  fmov.s @(r0,r4),fr9
  03F75E: FF90  fadd fr9,fr15
  03F760: 60E3  mov    r14,r0
  03F762: 8802  cmp/eq #2,r0
  03F764: 8919  bt     0x3F79A
  03F766: E2F0  mov    #-16,r2
  03F768: 622C  extu.b r2,r2
  03F76A: 3E23  cmp/ge r2,r14
  03F76C: 8915  bt     0x3F79A
  03F76E: E00C  mov    #12,r0
  03F770: FEF6  fmov.s @(r0,r15),fr14
  03F772: D638  mov.l  @(0x3F854),r6  ; =0xFFFF80B8 (RAM)
  03F774: F968  fmov.s @r6,fr9
  03F776: FE90  fadd fr9,fr14
  03F778: D237  mov.l  @(0x3F858),r2  ; =0xFFFF80DC (RAM)
  03F77A: F928  fmov.s @r2,fr9
  03F77C: FE90  fadd fr9,fr14
  03F77E: FFE7  fmov.s fr14,@(r0,r15)
  03F780: F968  fmov.s @r6,fr9
  03F782: FD90  fadd fr9,fr13
  03F784: F928  fmov.s @r2,fr9
  03F786: FD90  fadd fr9,fr13
  03F788: F968  fmov.s @r6,fr9
  03F78A: FC90  fadd fr9,fr12
  03F78C: F928  fmov.s @r2,fr9
  03F78E: FC90  fadd fr9,fr12
  03F790: F968  fmov.s @r6,fr9
  03F792: FF90  fadd fr9,fr15
  03F794: F928  fmov.s @r2,fr9
  03F796: A07A  bra    0x3F88E
  03F798: FF90  fadd fr9,fr15
  03F79A: 60E3  mov    r14,r0
  03F79C: 8802  cmp/eq #2,r0
  03F79E: 8B03  bf     0x3F7A8
  03F7A0: DC2E  mov.l  @(0x3F85C),r12  ; =0xFFFF7F04 (RAM)
  03F7A2: E0DC  mov    #-36,r0
  03F7A4: A06C  bra    0x3F880
  03F7A6: F0C6  fmov.s @(r0,r12),fr0
  03F7A8: D42D  mov.l  @(0x3F860),r4  ; =0x000AB69C (ROM)
  03F7AA: D22E  mov.l  @(0x3F864),r2  ; =0x000BE830 [func:table_desc_1d_float]
  03F7AC: 420B  jsr    @r2
  03F7AE: F4F8  fmov.s @r15,fr4
  03F7B0: E2F1  mov    #-15,r2
  03F7B2: 622C  extu.b r2,r2
  03F7B4: 3E20  cmp/eq r2,r14
  03F7B6: 8B01  bf     0x3F7BC
  03F7B8: A061  bra    0x3F87E
  03F7BA: F59D  fldi1  fr5
  03F7BC: E2F2  mov    #-14,r2
  03F7BE: 622C  extu.b r2,r2
  03F7C0: 3E20  cmp/eq r2,r14
  03F7C2: 8B02  bf     0x3F7CA
  03F7C4: F59D  fldi1  fr5
  03F7C6: A05A  bra    0x3F87E
  03F7C8: F550  fadd fr5,fr5
  03F7CA: E2F3  mov    #-13,r2
  03F7CC: 622C  extu.b r2,r2
  03F7CE: 3E20  cmp/eq r2,r14
  03F7D0: 8B02  bf     0x3F7D8
  03F7D2: C725  mova   @(0x3F868),r0
  03F7D4: A053  bra    0x3F87E
  03F7D6: F508  fmov.s @r0,fr5
  03F7D8: E2F4  mov    #-12,r2
  03F7DA: 622C  extu.b r2,r2
  03F7DC: 3E20  cmp/eq r2,r14
  03F7DE: 8B47  bf     0x3F870
  03F7E0: C722  mova   @(0x3F86C),r0
  03F7E2: A04C  bra    0x3F87E
  03F7E4: F508  fmov.s @r0,fr5
  03F7E6: 0000  .word  0x0000
  03F7E8: 000D  mov.w  @(r0,r0),r0
  03F7EA: 2A20  mov.b  r2,@r10
  03F7EC: 000D  mov.w  @(r0,r0),r0
  03F7EE: 2A24  mov.b  r2,@-r10
  03F7F0: 000D  mov.w  @(r0,r0),r0
  03F7F2: 2A28  tst r2,r10
  03F7F4: 000D  mov.w  @(r0,r0),r0
  03F7F6: 2A2C  cmp/str r2,r10
  03F7F8: 000D  mov.w  @(r0,r0),r0
  03F7FA: 2A30  mov.b  r3,@r10
  03F7FC: 000D  mov.w  @(r0,r0),r0
  03F7FE: 2A3C  cmp/str r3,r10
  03F800: FFFF  .word  0xFFFF  ; FPU
  03F802: 81DC  mov.w  r0,@(24,r13)
  03F804: 000B  rts
  03F806: E970  mov    #112,r9
  03F808: FFFF  .word  0xFFFF  ; FPU
  03F80A: 7F0C  add    #12,r15
  03F80C: FFFF  .word  0xFFFF  ; FPU
  03F80E: 8260  .word  0x8260
  03F810: FFFF  .word  0xFFFF  ; FPU
  03F812: 81F0  mov.w  r0,@(0,r15)
  03F814: 000D  mov.w  @(r0,r0),r0
  03F816: 2976  mov.l  r7,@-r9
  03F818: FFFF  .word  0xFFFF  ; FPU
  03F81A: 7F6C  add    #108,r15
  03F81C: FFFF  .word  0xFFFF  ; FPU
  03F81E: 7F74  add    #116,r15
  03F820: FFFF  .word  0xFFFF  ; FPU
  03F822: 8000  mov.b  r0,@(0,r0)
  03F824: FFFF  .word  0xFFFF  ; FPU
  03F826: 81EC  mov.w  r0,@(24,r14)
  03F828: FFFF  .word  0xFFFF  ; FPU
  03F82A: 8028  mov.b  r0,@(8,r2)
  03F82C: FFFF  .word  0xFFFF  ; FPU
  03F82E: 8038  mov.b  r0,@(8,r3)
  03F830: FFFF  .word  0xFFFF  ; FPU
  03F832: 803C  mov.b  r0,@(12,r3)
  03F834: FFFF  .word  0xFFFF  ; FPU
  03F836: 805C  mov.b  r0,@(12,r5)
  03F838: FFFF  .word  0xFFFF  ; FPU
  03F83A: 8084  mov.b  r0,@(4,r8)
  03F83C: FFFF  .word  0xFFFF  ; FPU
  03F83E: 80B4  mov.b  r0,@(4,r11)
  03F840: FFFF  .word  0xFFFF  ; FPU
  03F842: 80C4  mov.b  r0,@(4,r12)
  03F844: FFFF  .word  0xFFFF  ; FPU
  03F846: 80E8  mov.b  r0,@(8,r14)
  03F848: FFFF  .word  0xFFFF  ; FPU
  03F84A: 80F0  mov.b  r0,@(0,r15)
  03F84C: FFFF  .word  0xFFFF  ; FPU
  03F84E: 8088  mov.b  r0,@(8,r8)
  03F850: 000B  rts
  03F852: E960  mov    #96,r9
  03F854: FFFF  .word  0xFFFF  ; FPU
  03F856: 80B8  mov.b  r0,@(8,r11)
  03F858: FFFF  .word  0xFFFF  ; FPU
  03F85A: 80DC  mov.b  r0,@(12,r13)
  03F85C: FFFF  .word  0xFFFF  ; FPU
  03F85E: 7F04  add    #4,r15
  03F860: 000A  sts    MACH,r0
  03F862: B69C  bsr    0x4059E
  03F864: 000B  rts
  03F866: E830  mov    #48,r8
  03F868: 4040  .word  0x4040
  03F86A: 0000  .word  0x0000
  03F86C: 4080  .word  0x4080
  03F86E: 0000  .word  0x0000
  03F870: E2F5  mov    #-11,r2
  03F872: 622C  extu.b r2,r2
  03F874: 3E20  cmp/eq r2,r14
  03F876: 8F02  bf/s   0x3F87E
  03F878: F58D  fldi0  fr5
  03F87A: C7BB  mova   @(0x3FB68),r0
  03F87C: F508  fmov.s @r0,fr5
  03F87E: F050  fadd fr5,fr0
  03F880: E00C  mov    #12,r0
  03F882: FEF6  fmov.s @(r0,r15),fr14
  03F884: FE00  fadd fr0,fr14
  03F886: FFE7  fmov.s fr14,@(r0,r15)
  03F888: FD00  fadd fr0,fr13
  03F88A: FC00  fadd fr0,fr12
  03F88C: FF00  fadd fr0,fr15
  03F88E: D6B7  mov.l  @(0x3FB6C),r6  ; =0x000D2976 (ROM)
  03F890: 6060  mov.b  @r6,r0
  03F892: 885A  cmp/eq #90,r0
  03F894: 8B0B  bf     0x3F8AE
  03F896: D2B6  mov.l  @(0x3FB70),r2  ; =0xFFFF7F0C (RAM) [timing_blend_gbr]
  03F898: F028  fmov.s @r2,fr0
  03F89A: E004  mov    #4,r0
  03F89C: F9F6  fmov.s @(r0,r15),fr9
  03F89E: F090  fadd fr9,fr0
  03F8A0: D2B4  mov.l  @(0x3FB74),r2  ; =0xFFFF7F6C (RAM)
  03F8A2: F928  fmov.s @r2,fr9
  03F8A4: F090  fadd fr9,fr0
  03F8A6: E008  mov    #8,r0
  03F8A8: F9F6  fmov.s @(r0,r15),fr9
  03F8AA: A00E  bra    0x3F8CA
  03F8AC: F091  fsub fr9,fr0
  03F8AE: 55F5  mov.l  @(20,r15),r5
  03F8B0: F58D  fldi0  fr5
  03F8B2: D2B0  mov.l  @(0x3FB74),r2  ; =0xFFFF7F6C (RAM)
  03F8B4: 450B  jsr    @r5
  03F8B6: F428  fmov.s @r2,fr4
  03F8B8: D2AD  mov.l  @(0x3FB70),r2  ; =0xFFFF7F0C (RAM) [timing_blend_gbr]
  03F8BA: F828  fmov.s @r2,fr8
  03F8BC: E004  mov    #4,r0
  03F8BE: F9F6  fmov.s @(r0,r15),fr9
  03F8C0: F890  fadd fr9,fr8
  03F8C2: F080  fadd fr8,fr0
  03F8C4: E008  mov    #8,r0
  03F8C6: F8F6  fmov.s @(r0,r15),fr8
  03F8C8: F081  fsub fr8,fr0
  03F8CA: 56F4  mov.l  @(16,r15),r6
  03F8CC: F868  fmov.s @r6,fr8
  03F8CE: F800  fadd fr0,fr8
  03F8D0: E020  mov    #32,r0
  03F8D2: FF87  fmov.s fr8,@(r0,r15)
  03F8D4: E004  mov    #4,r0
  03F8D6: F966  fmov.s @(r0,r6),fr9
  03F8D8: F900  fadd fr0,fr9
  03F8DA: E024  mov    #36,r0
  03F8DC: FF97  fmov.s fr9,@(r0,r15)
  03F8DE: E008  mov    #8,r0
  03F8E0: F866  fmov.s @(r0,r6),fr8
  03F8E2: F800  fadd fr0,fr8
  03F8E4: E028  mov    #40,r0
  03F8E6: FF87  fmov.s fr8,@(r0,r15)
  03F8E8: E00C  mov    #12,r0
  03F8EA: F866  fmov.s @(r0,r6),fr8
  03F8EC: F800  fadd fr0,fr8
  03F8EE: E02C  mov    #44,r0
  03F8F0: FF87  fmov.s fr8,@(r0,r15)
  03F8F2: E00C  mov    #12,r0
  03F8F4: FEF6  fmov.s @(r0,r15),fr14
  03F8F6: 55F5  mov.l  @(20,r15),r5
  03F8F8: DC9F  mov.l  @(0x3FB78),r12  ; =0xFFFF7F04 (RAM)
  03F8FA: E0C0  mov    #-64,r0
  03F8FC: F5C6  fmov.s @(r0,r12),fr5
  03F8FE: E0BC  mov    #-68,r0
  03F900: 450B  jsr    @r5
  03F902: F4C6  fmov.s @(r0,r12),fr4
  03F904: FE01  fsub fr0,fr14
  03F906: E0AC  mov    #-84,r0
  03F908: FCE7  fmov.s fr14,@(r0,r12)
  03F90A: FEDC  fmov   fr13,fr14
  03F90C: 55F5  mov.l  @(20,r15),r5
  03F90E: E0C0  mov    #-64,r0
  03F910: F5C6  fmov.s @(r0,r12),fr5
  03F912: E0BC  mov    #-68,r0
  03F914: 450B  jsr    @r5
  03F916: F4C6  fmov.s @(r0,r12),fr4
  03F918: FE01  fsub fr0,fr14
  03F91A: E0B0  mov    #-80,r0
  03F91C: FCE7  fmov.s fr14,@(r0,r12)
  03F91E: FECC  fmov   fr12,fr14
  03F920: 55F5  mov.l  @(20,r15),r5
  03F922: E0C0  mov    #-64,r0
  03F924: F5C6  fmov.s @(r0,r12),fr5
  03F926: E0BC  mov    #-68,r0
  03F928: 450B  jsr    @r5
  03F92A: F4C6  fmov.s @(r0,r12),fr4
  03F92C: FE01  fsub fr0,fr14
  03F92E: E0B4  mov    #-76,r0
  03F930: FCE7  fmov.s fr14,@(r0,r12)
  03F932: FEFC  fmov   fr15,fr14
  03F934: 55F5  mov.l  @(20,r15),r5
  03F936: E0C0  mov    #-64,r0
  03F938: F5C6  fmov.s @(r0,r12),fr5
  03F93A: E0BC  mov    #-68,r0
  03F93C: 450B  jsr    @r5
  03F93E: F4C6  fmov.s @(r0,r12),fr4
  03F940: FE01  fsub fr0,fr14
  03F942: E0B8  mov    #-72,r0
  03F944: FCE7  fmov.s fr14,@(r0,r12)
  03F946: DE8D  mov.l  @(0x3FB7C),r14  ; =0x000BE56C (ROM)
  03F948: E00C  mov    #12,r0
  03F94A: F4F6  fmov.s @(r0,r15),fr4
  03F94C: E0BC  mov    #-68,r0
  03F94E: F6C6  fmov.s @(r0,r12),fr6
  03F950: C78B  mova   @(0x3FB80),r0
  03F952: F708  fmov.s @r0,fr7
  03F954: 4E0B  jsr    @r14
  03F956: F57C  fmov   fr7,fr5
  03F958: FE0C  fmov   fr0,fr14
  03F95A: F4DC  fmov   fr13,fr4
  03F95C: E0BC  mov    #-68,r0
  03F95E: F6C6  fmov.s @(r0,r12),fr6
  03F960: C787  mova   @(0x3FB80),r0
  03F962: F708  fmov.s @r0,fr7
  03F964: 4E0B  jsr    @r14
  03F966: F57C  fmov   fr7,fr5
  03F968: FD0C  fmov   fr0,fr13
  03F96A: F4CC  fmov   fr12,fr4
  03F96C: E0BC  mov    #-68,r0
  03F96E: F6C6  fmov.s @(r0,r12),fr6
  03F970: C783  mova   @(0x3FB80),r0
  03F972: F708  fmov.s @r0,fr7
  03F974: 4E0B  jsr    @r14
  03F976: F57C  fmov   fr7,fr5
  03F978: E030  mov    #48,r0
  03F97A: FF07  fmov.s fr0,@(r0,r15)
  03F97C: F4FC  fmov   fr15,fr4
  03F97E: E0BC  mov    #-68,r0
  03F980: F6C6  fmov.s @(r0,r12),fr6
  03F982: C77F  mova   @(0x3FB80),r0
  03F984: F708  fmov.s @r0,fr7
  03F986: 4E0B  jsr    @r14
  03F988: F57C  fmov   fr7,fr5
  03F98A: FF0C  fmov   fr0,fr15
  03F98C: E0C0  mov    #-64,r0
  03F98E: F6C6  fmov.s @(r0,r12),fr6
  03F990: C77B  mova   @(0x3FB80),r0
  03F992: F708  fmov.s @r0,fr7
  03F994: F57C  fmov   fr7,fr5
  03F996: 4E0B  jsr    @r14
  03F998: F4EC  fmov   fr14,fr4
  03F99A: FC0C  fmov   fr0,fr12
  03F99C: E0C0  mov    #-64,r0
  03F99E: F6C6  fmov.s @(r0,r12),fr6
  03F9A0: C777  mova   @(0x3FB80),r0
  03F9A2: F708  fmov.s @r0,fr7
  03F9A4: F57C  fmov   fr7,fr5
  03F9A6: 4E0B  jsr    @r14
  03F9A8: F4DC  fmov   fr13,fr4
  03F9AA: E034  mov    #52,r0
  03F9AC: FF07  fmov.s fr0,@(r0,r15)
  03F9AE: E0C0  mov    #-64,r0
  03F9B0: F6C6  fmov.s @(r0,r12),fr6
  03F9B2: C773  mova   @(0x3FB80),r0
  03F9B4: F708  fmov.s @r0,fr7
  03F9B6: F57C  fmov   fr7,fr5
  03F9B8: E030  mov    #48,r0
  03F9BA: 4E0B  jsr    @r14
  03F9BC: F4F6  fmov.s @(r0,r15),fr4
  03F9BE: FD0C  fmov   fr0,fr13
  03F9C0: E0C0  mov    #-64,r0
  03F9C2: F6C6  fmov.s @(r0,r12),fr6
  03F9C4: C76E  mova   @(0x3FB80),r0
  03F9C6: F708  fmov.s @r0,fr7
  03F9C8: F57C  fmov   fr7,fr5
  03F9CA: 4E0B  jsr    @r14
  03F9CC: F4FC  fmov   fr15,fr4
  03F9CE: E0C4  mov    #-60,r0
  03F9D0: F8C6  fmov.s @(r0,r12),fr8
  03F9D2: FC81  fsub fr8,fr12
  03F9D4: F8C6  fmov.s @(r0,r12),fr8
  03F9D6: E034  mov    #52,r0
  03F9D8: F9F6  fmov.s @(r0,r15),fr9
  03F9DA: F981  fsub fr8,fr9
  03F9DC: FF97  fmov.s fr9,@(r0,r15)
  03F9DE: E0C4  mov    #-60,r0
  03F9E0: F8C6  fmov.s @(r0,r12),fr8
  03F9E2: FD81  fsub fr8,fr13
  03F9E4: F8C6  fmov.s @(r0,r12),fr8
  03F9E6: F081  fsub fr8,fr0
  03F9E8: FF0C  fmov   fr0,fr15
  03F9EA: C766  mova   @(0x3FB84),r0
  03F9EC: FE08  fmov.s @r0,fr14
  03F9EE: F6EC  fmov   fr14,fr6
  03F9F0: E0E0  mov    #-32,r0
  03F9F2: F5C6  fmov.s @(r0,r12),fr5
  03F9F4: 4E0B  jsr    @r14
  03F9F6: F4CC  fmov   fr12,fr4
  03F9F8: E08C  mov    #-116,r0
  03F9FA: FC07  fmov.s fr0,@(r0,r12)
  03F9FC: F6EC  fmov   fr14,fr6
  03F9FE: E0E0  mov    #-32,r0
  03FA00: F5C6  fmov.s @(r0,r12),fr5
  03FA02: E034  mov    #52,r0
  03FA04: 4E0B  jsr    @r14
  03FA06: F4F6  fmov.s @(r0,r15),fr4
  03FA08: E090  mov    #-112,r0
  03FA0A: FC07  fmov.s fr0,@(r0,r12)
  03FA0C: F6EC  fmov   fr14,fr6
  03FA0E: E0E0  mov    #-32,r0
  03FA10: F5C6  fmov.s @(r0,r12),fr5
  03FA12: 4E0B  jsr    @r14
  03FA14: F4DC  fmov   fr13,fr4
  03FA16: E094  mov    #-108,r0
  03FA18: FC07  fmov.s fr0,@(r0,r12)
  03FA1A: F6EC  fmov   fr14,fr6
  03FA1C: E0E0  mov    #-32,r0
  03FA1E: F5C6  fmov.s @(r0,r12),fr5
  03FA20: 4E0B  jsr    @r14
  03FA22: F4FC  fmov   fr15,fr4
  03FA24: E098  mov    #-104,r0
  03FA26: FC07  fmov.s fr0,@(r0,r12)
  03FA28: E020  mov    #32,r0
  03FA2A: F4F6  fmov.s @(r0,r15),fr4
  03FA2C: C754  mova   @(0x3FB80),r0
  03FA2E: F708  fmov.s @r0,fr7
  03FA30: F57C  fmov   fr7,fr5
  03FA32: 4E0B  jsr    @r14
  03FA34: F6EC  fmov   fr14,fr6
  03FA36: E09C  mov    #-100,r0
  03FA38: FC07  fmov.s fr0,@(r0,r12)
  03FA3A: E024  mov    #36,r0
  03FA3C: F4F6  fmov.s @(r0,r15),fr4
  03FA3E: C750  mova   @(0x3FB80),r0
  03FA40: F708  fmov.s @r0,fr7
  03FA42: F57C  fmov   fr7,fr5
  03FA44: 4E0B  jsr    @r14
  03FA46: F6EC  fmov   fr14,fr6
  03FA48: E0A0  mov    #-96,r0
  03FA4A: FC07  fmov.s fr0,@(r0,r12)
  03FA4C: E028  mov    #40,r0
  03FA4E: F4F6  fmov.s @(r0,r15),fr4
  03FA50: C74B  mova   @(0x3FB80),r0
  03FA52: F708  fmov.s @r0,fr7
  03FA54: F57C  fmov   fr7,fr5
  03FA56: 4E0B  jsr    @r14
  03FA58: F6EC  fmov   fr14,fr6
  03FA5A: E0A4  mov    #-92,r0
  03FA5C: FC07  fmov.s fr0,@(r0,r12)
  03FA5E: E02C  mov    #44,r0
  03FA60: F4F6  fmov.s @(r0,r15),fr4
  03FA62: C747  mova   @(0x3FB80),r0
  03FA64: F708  fmov.s @r0,fr7
  03FA66: F57C  fmov   fr7,fr5
  03FA68: 4E0B  jsr    @r14
  03FA6A: F6EC  fmov   fr14,fr6
  03FA6C: E0A8  mov    #-88,r0
  03FA6E: FC07  fmov.s fr0,@(r0,r12)
  03FA70: 7F50  add    #80,r15
  03FA72: 4F17  ldc.l  @r15+,GBR
  03FA74: FFF9  fmov.s @r15+,fr15
  03FA76: FEF9  fmov.s @r15+,fr14
  03FA78: FDF9  fmov.s @r15+,fr13
  03FA7A: FCF9  fmov.s @r15+,fr12
  03FA7C: 4F26  lds.l  @r15+,PR
  03FA7E: 6EF6  mov.l  @r15+,r14
  03FA80: 6DF6  mov.l  @r15+,r13
  03FA82: 6CF6  mov.l  @r15+,r12
  03FA84: 6BF6  mov.l  @r15+,r11
  03FA86: 6AF6  mov.l  @r15+,r10
  03FA88: 000B  rts
  03FA8A: 69F6  mov.l  @r15+,r9
  03FA8C: 4F22  sts.l  PR,@-r15
  03FA8E: 4F13  .word  0x4F13
  03FA90: D03D  mov.l  @(0x3FB88),r0  ; =0xFFFF7EC0 (RAM)
  03FA92: 401E  ldc    r0,GBR
  03FA94: D23D  mov.l  @(0x3FB8C),r2  ; =0xFFFF6350 (RAM) [ect_current]
  03FA96: F428  fmov.s @r2,fr4
  03FA98: C73A  mova   @(0x3FB84),r0
  03FA9A: F908  fmov.s @r0,fr9
  03FA9C: D53C  mov.l  @(0x3FB90),r5  ; =0xFFFF7EFC (RAM)
  03FA9E: E0D0  mov    #-48,r0
  03FAA0: F597  fmov.s fr9,@(r0,r5)
  03FAA2: E0C4  mov    #-60,r0
  03FAA4: F597  fmov.s fr9,@(r0,r5)
  03FAA6: E0C8  mov    #-56,r0
  03FAA8: F597  fmov.s fr9,@(r0,r5)
  03FAAA: C73A  mova   @(0x3FB94),r0
  03FAAC: F808  fmov.s @r0,fr8
  03FAAE: E0E0  mov    #-32,r0
  03FAB0: F587  fmov.s fr8,@(r0,r5)
  03FAB2: E0FF  mov    #-1,r0
  03FAB4: C11E  mov.w  r0,@(60,GBR)  ; GBR+0x3C
  03FAB6: C11F  mov.w  r0,@(62,GBR)  ; GBR+0x3E
  03FAB8: D437  mov.l  @(0x3FB98),r4  ; =0x000ADA98 (ROM)
  03FABA: D238  mov.l  @(0x3FB9C),r2  ; =0x000BE830 [func:table_desc_1d_float]
  03FABC: 420B  jsr    @r2
  03FABE: C028  mov.b  r0,@(40,GBR)
  03FAC0: D533  mov.l  @(0x3FB90),r5  ; =0xFFFF7EFC (RAM)
  03FAC2: E0E8  mov    #-24,r0
  03FAC4: F507  fmov.s fr0,@(r0,r5)
  03FAC6: 4F17  ldc.l  @r15+,GBR
  03FAC8: 4F26  lds.l  @r15+,PR
  03FACA: 000B  rts
  03FACC: 0009  nop
  03FACE: 2FC6  mov.l  r12,@-r15
  03FAD0: 2FD6  mov.l  r13,@-r15
  03FAD2: 2FE6  mov.l  r14,@-r15
  03FAD4: 4F22  sts.l  PR,@-r15
  03FAD6: FFEB  fmov.s fr14,@-r15
  03FAD8: 4F13  .word  0x4F13
  03FADA: D02B  mov.l  @(0x3FB88),r0  ; =0xFFFF7EC0 (RAM)
  03FADC: 401E  ldc    r0,GBR
  03FADE: 7FF4  add    #-12,r15
  03FAE0: D22A  mov.l  @(0x3FB8C),r2  ; =0xFFFF6350 (RAM) [ect_current]
  03FAE2: FE28  fmov.s @r2,fr14
  03FAE4: D22E  mov.l  @(0x3FBA0),r2  ; =0x00022F92 (ROM)
  03FAE6: 420B  jsr    @r2
  03FAE8: 0009  nop
  03FAEA: 2F00  mov.b  r0,@r15
  03FAEC: D62D  mov.l  @(0x3FBA4),r6  ; =0xFFFF5BE3 (RAM)
  03FAEE: 6E60  mov.b  @r6,r14
  03FAF0: D62D  mov.l  @(0x3FBA8),r6  ; =0xFFFF65BF (RAM)
  03FAF2: 6D60  mov.b  @r6,r13
  03FAF4: D62D  mov.l  @(0x3FBAC),r6  ; =0xFFFF85D7 (RAM)
  03FAF6: 6C60  mov.b  @r6,r12
  03FAF8: D62D  mov.l  @(0x3FBB0),r6  ; =0x0003AB20 (ROM)
  03FAFA: 460B  jsr    @r6
  03FAFC: 0009  nop
  03FAFE: 80F4  mov.b  r0,@(4,r15)
  03FB00: 60F0  mov.b  @r15,r0
  03FB02: 8801  cmp/eq #1,r0
  03FB04: 8B27  bf     0x3FB56
  03FB06: 60E3  mov    r14,r0
  03FB08: C043  mov.b  r0,@(67,GBR)
  03FB0A: E000  mov    #0,r0
  03FB0C: C041  mov.b  r0,@(65,GBR)
  03FB0E: 60D3  mov    r13,r0
  03FB10: C044  mov.b  r0,@(68,GBR)
  03FB12: E000  mov    #0,r0
  03FB14: C042  mov.b  r0,@(66,GBR)
  03FB16: C048  mov.b  r0,@(72,GBR)
  03FB18: D226  mov.l  @(0x3FBB4),r2  ; =0xFFFF805C (RAM)
  03FB1A: F828  fmov.s @r2,fr8
  03FB1C: D626  mov.l  @(0x3FBB8),r6  ; =0xFFFF7F08 (RAM)
  03FB1E: E0E8  mov    #-24,r0
  03FB20: F687  fmov.s fr8,@(r0,r6)
  03FB22: 60C3  mov    r12,r0
  03FB24: C045  mov.b  r0,@(69,GBR)
  03FB26: E000  mov    #0,r0
  03FB28: C049  mov.b  r0,@(73,GBR)
  03FB2A: C716  mova   @(0x3FB84),r0
  03FB2C: F908  fmov.s @r0,fr9
  03FB2E: E0B8  mov    #-72,r0
  03FB30: F697  fmov.s fr9,@(r0,r6)
  03FB32: E0BC  mov    #-68,r0
  03FB34: F697  fmov.s fr9,@(r0,r6)
  03FB36: D418  mov.l  @(0x3FB98),r4  ; =0x000ADA98 (ROM)
  03FB38: D218  mov.l  @(0x3FB9C),r2  ; =0x000BE830 [func:table_desc_1d_float]
  03FB3A: 420B  jsr    @r2
  03FB3C: F4EC  fmov   fr14,fr4
  03FB3E: D61E  mov.l  @(0x3FBB8),r6  ; =0xFFFF7F08 (RAM)
  03FB40: E0DC  mov    #-36,r0
  03FB42: F607  fmov.s fr0,@(r0,r6)
  03FB44: E0FF  mov    #-1,r0
  03FB46: C028  mov.b  r0,@(40,GBR)
  03FB48: 84F4  mov.b  @(4,r15),r0
  03FB4A: C046  mov.b  r0,@(70,GBR)
  03FB4C: E000  mov    #0,r0
  03FB4E: C02B  mov.b  r0,@(43,GBR)
  03FB50: C42D  mov.b  @(45,GBR),r0
  03FB52: 1F02  mov.l  r0,@(8,r15)
  03FB54: C04B  mov.b  r0,@(75,GBR)
  03FB56: 7F0C  add    #12,r15
  03FB58: 4F17  ldc.l  @r15+,GBR
  03FB5A: FEF9  fmov.s @r15+,fr14
  03FB5C: 4F26  lds.l  @r15+,PR
  03FB5E: 6EF6  mov.l  @r15+,r14
  03FB60: 6DF6  mov.l  @r15+,r13
  03FB62: 000B  rts
  03FB64: 6CF6  mov.l  @r15+,r12
  03FB66: 0000  .word  0x0000
  03FB68: 40A0  .word  0x40A0
  03FB6A: 0000  .word  0x0000
  03FB6C: 000D  mov.w  @(r0,r0),r0
  03FB6E: 2976  mov.l  r7,@-r9
  03FB70: FFFF  .word  0xFFFF  ; FPU
  03FB72: 7F0C  add    #12,r15

  --- Literal Pool References ---
    0x03F508: 0xFFFF7E90  RAM [unknown]
    0x03F50C: 0xFFFF6624  RAM [rpm_current]
    0x03F510: 0xFFFF62F8  RAM [unknown]
    0x03F514: 0xFFFF65FC  RAM [unknown]
    0x03F518: 0xFFFF6350  RAM [ect_current]
    0x03F51C: 0xFFFF7F68  RAM [unknown]
    0x03F520: 0xFFFF8F16  RAM [unknown]
    0x03F524: 0xFFFF8F24  RAM [unknown]
    0x03F528: 0xFFFF85D7  RAM [unknown]
    0x03F52C: 0xFFFF5BE3  RAM [unknown]
    0x03F530: 0xFFFF65BF  RAM [unknown]
    0x03F534: 0xFFFF7D18  RAM [sched_status_R1]
    0x03F538: 0x0005EB32
    0x03F53C: 0xFFFF7FBC  RAM [unknown]
    0x03F540: 0x000D2974
    0x03F544: 0x000D2975
    0x03F548: 0xFFFF7F0C  RAM [timing_blend_gbr]
    0x03F54C: 0xFFFF8258  RAM [unknown]
    0x03F554: 0x000D2A34  [MapSwitch_IdleModeThreshold]
    0x03F558: 0xFFFF81DC  RAM [unknown]
    0x03F55C: 0x000BE970
    0x03F560: 0xFFFF7F04  RAM [unknown]
    0x03F564: 0x000D2A08  [MapSwitch_EngineSpeedThreshold]
    0x03F568: 0xFFFF7F1C  RAM [unknown]
    0x03F56C: 0x000D2A0C  [MapSwitch_TorqueRatioThreshold]
    0x03F570: 0x000D2A10  [MapSwitch_MAFLoadThreshold]
    0x03F574: 0x000D2A14  [MapSwitch_VehicleSpeedLow]
    0x03F578: 0x000D2A18  [MapSwitch_VehicleSpeedHigh]
    0x03F57C: 0x000D2A1C  [MapSwitch_IATThreshold]
    0x03F580: 0x000D2A38  [MapSwitch_SIDriveThreshold]
    0x03F70C: 0xD245F828
    0x03F764: 0x8919E2F0
    0x03F7E8: 0x000D2A20
    0x03F7EC: 0x000D2A24
    0x03F7F0: 0x000D2A28
    0x03F7F4: 0x000D2A2C
    0x03F7F8: 0x000D2A30  (ROM cal: 119)
    0x03F7FC: 0x000D2A3C
    0x03F800: 0xFFFF81DC  RAM [unknown]
    0x03F804: 0x000BE970
    0x03F808: 0xFFFF7F0C  RAM [timing_blend_gbr]
    0x03F80C: 0xFFFF8260  RAM [unknown]
    0x03F810: 0xFFFF81F0  RAM [unknown]
    0x03F814: 0x000D2976
    0x03F818: 0xFFFF7F6C  RAM [unknown]
    0x03F81C: 0xFFFF7F74  RAM [unknown]
    0x03F820: 0xFFFF8000  RAM [unknown]
    0x03F824: 0xFFFF81EC  RAM [unknown]
    0x03F828: 0xFFFF8028  RAM [unknown]
    0x03F82C: 0xFFFF8038  RAM [unknown]
    0x03F830: 0xFFFF803C  RAM [unknown]
    0x03F834: 0xFFFF805C  RAM [unknown]
    0x03F838: 0xFFFF8084  RAM [unknown]
    0x03F83C: 0xFFFF80B4  RAM [unknown]
    0x03F840: 0xFFFF80C4  RAM [unknown]
    0x03F844: 0xFFFF80E8  RAM [unknown]
    0x03F848: 0xFFFF80F0  RAM [unknown]
    0x03F84C: 0xFFFF8088  RAM [unknown]
    0x03F850: 0x000BE960
    0x03F854: 0xFFFF80B8  RAM [unknown]
    0x03F858: 0xFFFF80DC  RAM [unknown]
    0x03F85C: 0xFFFF7F04  RAM [unknown]
    0x03F860: 0x000AB69C
    0x03F864: 0x000BE830  [table_desc_1d_float]
    0x03FB6C: 0x000D2976
    0x03FB70: 0xFFFF7F0C  RAM [timing_blend_gbr]
    0x03FB74: 0xFFFF7F6C  RAM [unknown]
    0x03FB78: 0xFFFF7F04  RAM [unknown]
    0x03FB7C: 0x000BE56C
    0x03FB88: 0xFFFF7EC0  RAM [unknown]
    0x03FB8C: 0xFFFF6350  RAM [ect_current]
    0x03FB90: 0xFFFF7EFC  RAM [unknown]
    0x03FB98: 0x000ADA98
    0x03FB9C: 0x000BE830  [table_desc_1d_float]
    0x03FBA0: 0x00022F92
    0x03FBA4: 0xFFFF5BE3  RAM [unknown]
    0x03FBA8: 0xFFFF65BF  RAM [unknown]
    0x03FBAC: 0xFFFF85D7  RAM [unknown]
    0x03FBB0: 0x0003AB20
    0x03FBB4: 0xFFFF805C  RAM [unknown]
    0x03FBB8: 0xFFFF7F08  RAM [unknown]

  --- Subroutine calls ---
    0x03F3B8 -> FUN_05EB32 @ 0x05EB32
    0x03F6B6 -> FUN_0BE970 @ 0x0BE970
    0x03F6C0 -> FUN_0BE970 @ 0x0BE970
    0x03F6CA -> FUN_0BE970 @ 0x0BE970
    0x03F6D4 -> FUN_0BE970 @ 0x0BE970
    0x03F6DE -> FUN_0BE970 @ 0x0BE970
    0x03F702 -> FUN_0BE960 @ 0x0BE960
    0x03F7AC -> table_desc_1d_float @ 0x0BE830
    0x03F862 -> FUN_04059E @ 0x04059E
    0x03F8B4 -> jsr @r5 (unresolved)
    0x03F900 -> jsr @r5 (unresolved)
    0x03F914 -> jsr @r5 (unresolved)
    0x03F928 -> jsr @r5 (unresolved)
    0x03F93C -> jsr @r5 (unresolved)
    0x03F954 -> FUN_0BE56C @ 0x0BE56C
    0x03F964 -> FUN_0BE56C @ 0x0BE56C
    0x03F974 -> jsr @r14 (unresolved)
    0x03F986 -> jsr @r14 (unresolved)
    0x03F996 -> jsr @r14 (unresolved)
    0x03F9A6 -> jsr @r14 (unresolved)
    0x03F9BA -> jsr @r14 (unresolved)
    0x03F9CA -> jsr @r14 (unresolved)
    0x03F9F4 -> jsr @r14 (unresolved)
    0x03FA04 -> jsr @r14 (unresolved)
    0x03FA12 -> jsr @r14 (unresolved)
    0x03FA20 -> jsr @r14 (unresolved)
    0x03FA32 -> jsr @r14 (unresolved)
    0x03FA44 -> jsr @r14 (unresolved)
    0x03FA56 -> jsr @r14 (unresolved)
    0x03FA68 -> jsr @r14 (unresolved)
    0x03FABC -> table_desc_1d_float @ 0x0BE830
    0x03FAE6 -> FUN_022F92 @ 0x022F92
    0x03FAFA -> FUN_03AB20 @ 0x03AB20
    0x03FB3A -> table_desc_1d_float @ 0x0BE830